ARM GAS  C:\Users\maxwe\AppData\Local\Temp\cchGHDkA.s 			page 1


   1              		.syntax unified
   2              		.cpu cortex-m4
   3              		.eabi_attribute 27, 1
   4              		.fpu fpv4-sp-d16
   5              		.eabi_attribute 20, 1
   6              		.eabi_attribute 21, 1
   7              		.eabi_attribute 23, 3
   8              		.eabi_attribute 24, 1
   9              		.eabi_attribute 25, 1
  10              		.eabi_attribute 26, 1
  11              		.eabi_attribute 30, 1
  12              		.eabi_attribute 34, 1
  13              		.eabi_attribute 18, 4
  14              		.thumb
  15              		.syntax unified
  16              		.file	"main_cm4.c"
  17              		.text
  18              	.Ltext0:
  19              		.cfi_sections	.debug_frame
  20              		.section	.text.WaitForOperation,"ax",%progbits
  21              		.align	2
  22              		.thumb
  23              		.thumb_func
  24              		.type	WaitForOperation, %function
  25              	WaitForOperation:
  26              	.LFB521:
  27              		.file 1 "main_cm4.c"
   1:main_cm4.c    **** /* ========================================
   2:main_cm4.c    ****  *
   3:main_cm4.c    ****  * Copyright YOUR COMPANY, THE YEAR
   4:main_cm4.c    ****  * All Rights Reserved
   5:main_cm4.c    ****  * UNPUBLISHED, LICENSED SOFTWARE.
   6:main_cm4.c    ****  *
   7:main_cm4.c    ****  * CONFIDENTIAL AND PROPRIETARY INFORMATION
   8:main_cm4.c    ****  * WHICH IS THE PROPERTY OF your company.
   9:main_cm4.c    ****  *
  10:main_cm4.c    ****  * ========================================
  11:main_cm4.c    **** */
  12:main_cm4.c    **** 
  13:main_cm4.c    **** 
  14:main_cm4.c    **** /*  HOW TO CALL DISPLAY
  15:main_cm4.c    **** CLCD_Init() ;  //THIS GOES ABOVE LOOP IN MAIN
  16:main_cm4.c    ****         CyDelay(500);
  17:main_cm4.c    ****         
  18:main_cm4.c    **** 
  19:main_cm4.c    ****         go_to_top_line() ;
  20:main_cm4.c    ****         CLCD_PutString("test1") ;
  21:main_cm4.c    ****         go_to_bottom_line();
  22:main_cm4.c    ****         CLCD_PutString("test2") ;
  23:main_cm4.c    **** 
  24:main_cm4.c    ****         CyDelay(500);
  25:main_cm4.c    **** */
  26:main_cm4.c    **** 
  27:main_cm4.c    **** //used with code from the gracious user and contributer: https://community.infineon.com/t5/Code-Exa
  28:main_cm4.c    **** #include "project.h"
  29:main_cm4.c    **** #include "stdio.h"
  30:main_cm4.c    **** #include "clcd.h"
ARM GAS  C:\Users\maxwe\AppData\Local\Temp\cchGHDkA.s 			page 2


  31:main_cm4.c    **** #include <string.h>
  32:main_cm4.c    **** #include <math.h>
  33:main_cm4.c    **** 
  34:main_cm4.c    **** #define LIS3DH_ADDRESS            	0x19 //0x18 Black / 0x19 Red
  35:main_cm4.c    **** #define SampleRate                  10 // # of sample taken per RMS readout  //WORKING:3
  36:main_cm4.c    **** //#define rmsThreshold                10.5 // Threshold RMS value of all 3 axis
  37:main_cm4.c    **** #define rmsThreshold                5 // not 0.5, 2, 10, 7WORKS with gusto: lvl 1
  38:main_cm4.c    **** 
  39:main_cm4.c    **** 
  40:main_cm4.c    **** //Write Registers Defined
  41:main_cm4.c    **** #define CTRL_REG1                   0x20
  42:main_cm4.c    **** #define CTRL_REG3                   0x22
  43:main_cm4.c    **** #define INT1_CFG                    0x30
  44:main_cm4.c    **** #define CLICK_CFG                   0x38
  45:main_cm4.c    **** 
  46:main_cm4.c    **** //Read Register Defined
  47:main_cm4.c    **** #define OUT_X_H      0x29        //High X 
  48:main_cm4.c    **** #define OUT_X_L      0x28        //Low X 
  49:main_cm4.c    **** #define OUT_Y_H      0x2B        //High Y
  50:main_cm4.c    **** #define OUT_Y_L      0x2A        //Low Y 
  51:main_cm4.c    **** #define OUT_Z_H      0x2D        //High Z 
  52:main_cm4.c    **** #define OUT_Z_L      0x2C        //Low Z 
  53:main_cm4.c    **** 
  54:main_cm4.c    **** //Note(CR# = Control Register #) Edit Values below to change register
  55:main_cm4.c    **** #define CR1_Settings                0x51 // 0x9F = 1001 1111 | 0x51 = 0101 0001  | 4 bits - Data Se
  56:main_cm4.c    **** #define CR3_Settings                0xC0 // 0xC0 = 1100 0000
  57:main_cm4.c    **** //#define INT1_CFG_Settings           0xE0 // 0xE0 = 1110 0000
  58:main_cm4.c    **** //#define CLICK_CFG_Settings          0x2A // 0x2A = 0010 1010
  59:main_cm4.c    **** 
  60:main_cm4.c    **** //Interrupt Function
  61:main_cm4.c    **** //void emergency_detected_handler();
  62:main_cm4.c    **** 
  63:main_cm4.c    **** void do_help(void) ;
  64:main_cm4.c    **** void do_clear(void) ;
  65:main_cm4.c    **** void do_write(void) ;
  66:main_cm4.c    **** void do_SetDDRAddr(void) ;
  67:main_cm4.c    **** void do_SetCGRAMAddr(void) ;
  68:main_cm4.c    **** void do_Command(void) ;
  69:main_cm4.c    **** void do_print(void) ;
  70:main_cm4.c    **** void do_pos(void) ;
  71:main_cm4.c    **** void do_reset(void) ;
  72:main_cm4.c    **** void go_to_top_line(void);
  73:main_cm4.c    **** void go_to_bottom_line(void);
  74:main_cm4.c    **** void print_two_sentence(char str_one[16], char str_two[16]);
  75:main_cm4.c    **** 
  76:main_cm4.c    **** static void WriteRegister(uint8 reg_addr, uint16 data);
  77:main_cm4.c    **** static void WaitForOperation(void);
  78:main_cm4.c    **** static uint8 ReadRegister(uint8 reg_addr, int read_len);
  79:main_cm4.c    **** 
  80:main_cm4.c    **** static cy_stc_scb_i2c_master_xfer_config_t register_setting;
  81:main_cm4.c    **** static uint8_t rbuff[6];
  82:main_cm4.c    **** static uint8_t wbuff[6];
  83:main_cm4.c    **** 
  84:main_cm4.c    **** float x_accl = 0, y_accl = 0, z_accl = 0;
  85:main_cm4.c    **** float x, y, z;
  86:main_cm4.c    **** char str_accelerometer_value[16];
  87:main_cm4.c    **** char top_line[16];
ARM GAS  C:\Users\maxwe\AppData\Local\Temp\cchGHDkA.s 			page 3


  88:main_cm4.c    **** char bottom_line[16];
  89:main_cm4.c    **** int state = 1;
  90:main_cm4.c    **** int last_state = 0;
  91:main_cm4.c    **** int light_switch=0;
  92:main_cm4.c    **** int I2C_count = 0;
  93:main_cm4.c    **** 
  94:main_cm4.c    **** int main(void)
  95:main_cm4.c    **** {
  96:main_cm4.c    ****     __enable_irq(); /* Enable global interrupts. */
  97:main_cm4.c    ****     CLCD_Init() ;
  98:main_cm4.c    ****     
  99:main_cm4.c    ****     //Enabling interrupt and linking to function
 100:main_cm4.c    ****    // Cy_SysInt_Init(&PWR_OFF_Interrupt_cfg, emergency_detected_handler);
 101:main_cm4.c    ****    // NVIC_EnableIRQ(PWR_OFF_Interrupt_cfg.intrSrc);
 102:main_cm4.c    ****     
 103:main_cm4.c    ****     //turn all of the logical LEDs OFF at boot 
 104:main_cm4.c    ****     Cy_GPIO_Write(fault_led_PORT, fault_led_NUM, 1);
 105:main_cm4.c    ****     Cy_GPIO_Write(Inertial_emergency_LED_PORT, Inertial_emergency_LED_NUM, 1);
 106:main_cm4.c    ****     Cy_GPIO_Write(Estop_emergency_LED_PORT, Estop_emergency_LED_NUM, 1);
 107:main_cm4.c    ****     
 108:main_cm4.c    ****     //Turn on LCD power 
 109:main_cm4.c    ****     //Cy_GPIO_Write(LCD_POWER_PORT, LCD_POWER_NUM, 1);
 110:main_cm4.c    ****     
 111:main_cm4.c    ****     go_to_top_line() ;
 112:main_cm4.c    ****     CLCD_PutString("Booting") ;
 113:main_cm4.c    ****     go_to_bottom_line();
 114:main_cm4.c    ****     CLCD_PutString("Stand By") ;
 115:main_cm4.c    ****     CyDelay(1000);
 116:main_cm4.c    ****     
 117:main_cm4.c    ****     Cy_GPIO_Write(fault_led_PORT, fault_led_NUM, 0);
 118:main_cm4.c    ****     Cy_GPIO_Write(Inertial_emergency_LED_PORT, Inertial_emergency_LED_NUM, 0);
 119:main_cm4.c    ****     Cy_GPIO_Write(Estop_emergency_LED_PORT, Estop_emergency_LED_NUM, 0);
 120:main_cm4.c    **** 
 121:main_cm4.c    ****     /* Place your initialization/startup code here (e.g. MyInst_Start()) */
 122:main_cm4.c    ****     //UART_Start(); //starting the UART
 123:main_cm4.c    ****     
 124:main_cm4.c    ****     setvbuf(stdin,NULL, _IONBF,0);
 125:main_cm4.c    ****     
 126:main_cm4.c    ****     
 127:main_cm4.c    ****     
 128:main_cm4.c    ****     
 129:main_cm4.c    ****     
 130:main_cm4.c    ****     SensorBus_Start(); //I2C
 131:main_cm4.c    ****     
 132:main_cm4.c    ****     NVIC_EnableIRQ((IRQn_Type) SensorBus_SCB_IRQ_cfg.intrSrc); 
 133:main_cm4.c    **** 
 134:main_cm4.c    ****     register_setting.slaveAddress =LIS3DH_ADDRESS;
 135:main_cm4.c    ****     WriteRegister(CTRL_REG1, CR1_Settings); //going up to 400Hz
 136:main_cm4.c    ****     //WriteRegister(CTRL_REG3, CR3_Settings); //Sets up interupt tried(C0) no change
 137:main_cm4.c    ****     //WriteRegister(INT1_CFG, INT1_CFG_Settings); // //NO CHANGE
 138:main_cm4.c    ****     //WriteRegister(CLICK_CFG, CLICK_CFG_Settings); //Sets up config <-sets up double tap //NO CHAN
 139:main_cm4.c    **** 
 140:main_cm4.c    ****     WriteRegister(0x1F, 0b11000000); // temp_cfg_reg
 141:main_cm4.c    ****     WriteRegister(0x23, 0b10000000);
 142:main_cm4.c    **** 
 143:main_cm4.c    ****     float x_accl = 0, y_accl = 0, z_accl = 0;
 144:main_cm4.c    ****     float x, y, z;
ARM GAS  C:\Users\maxwe\AppData\Local\Temp\cchGHDkA.s 			page 4


 145:main_cm4.c    ****     char g_force_fault[16];
 146:main_cm4.c    ****     int i = 0;
 147:main_cm4.c    ****     char c;
 148:main_cm4.c    ****     
 149:main_cm4.c    ****     
 150:main_cm4.c    ****     CyDelay(50);
 151:main_cm4.c    ****         
 152:main_cm4.c    ****         
 153:main_cm4.c    ****         
 154:main_cm4.c    ****         
 155:main_cm4.c    ****         
 156:main_cm4.c    ****     
 157:main_cm4.c    **** 
 158:main_cm4.c    ****    
 159:main_cm4.c    **** 
 160:main_cm4.c    ****     for(;;)
 161:main_cm4.c    ****     {
 162:main_cm4.c    ****         
 163:main_cm4.c    **** /*    
 164:main_cm4.c    ****     
 165:main_cm4.c    ****     Cy_SCB_I2C_Disable(SensorBus_HW, &SensorBus_context);
 166:main_cm4.c    ****     Cy_SCB_I2C_Enable(SensorBus_HW);
 167:main_cm4.c    ****         
 168:main_cm4.c    ****             
 169:main_cm4.c    ****     SensorBus_Start(); //I2C
 170:main_cm4.c    ****     
 171:main_cm4.c    ****     NVIC_EnableIRQ((IRQn_Type) SensorBus_SCB_IRQ_cfg.intrSrc); 
 172:main_cm4.c    **** 
 173:main_cm4.c    ****     register_setting.slaveAddress =LIS3DH_ADDRESS;
 174:main_cm4.c    ****     WriteRegister(CTRL_REG1, CR1_Settings); //going up to 400Hz
 175:main_cm4.c    ****     //WriteRegister(CTRL_REG3, CR3_Settings); //Sets up interupt tried(C0) no change
 176:main_cm4.c    ****     //WriteRegister(INT1_CFG, INT1_CFG_Settings); // //NO CHANGE
 177:main_cm4.c    ****     //WriteRegister(CLICK_CFG, CLICK_CFG_Settings); //Sets up config <-sets up double tap //NO CHAN
 178:main_cm4.c    **** 
 179:main_cm4.c    ****     WriteRegister(0x1F, 0b11000000); // temp_cfg_reg
 180:main_cm4.c    ****     WriteRegister(0x23, 0b10000000);
 181:main_cm4.c    **** */    
 182:main_cm4.c    **** /*   
 183:main_cm4.c    ****     CyDelay(50);
 184:main_cm4.c    **** 
 185:main_cm4.c    ****         x = (int16_t)(ReadRegister(OUT_X_L, 1) | (ReadRegister(OUT_X_H, 1) << 8));
 186:main_cm4.c    ****         x_accl = ((2.0 * x) / 32767) * 9.8;
 187:main_cm4.c    ****         
 188:main_cm4.c    ****         print_two_sentence(top_line,bottom_line);
 189:main_cm4.c    ****         
 190:main_cm4.c    ****         if(x_accl < 5)
 191:main_cm4.c    ****                 {
 192:main_cm4.c    ****                     state = 4;
 193:main_cm4.c    ****                     
 194:main_cm4.c    ****                 if (last_state != state)
 195:main_cm4.c    ****                 {
 196:main_cm4.c    ****                     sprintf(top_line, "%0.2f", x_accl);
 197:main_cm4.c    ****                     sprintf(bottom_line, "FAULT");
 198:main_cm4.c    ****                     print_two_sentence(top_line,bottom_line);
 199:main_cm4.c    ****                 }
 200:main_cm4.c    ****                     last_state = state;
 201:main_cm4.c    ****                 }
ARM GAS  C:\Users\maxwe\AppData\Local\Temp\cchGHDkA.s 			page 5


 202:main_cm4.c    ****         else
 203:main_cm4.c    ****         {
 204:main_cm4.c    ****             state = 1;
 205:main_cm4.c    ****             if (last_state != state)
 206:main_cm4.c    ****             {
 207:main_cm4.c    ****                 sprintf(top_line, "%0.2f", x_accl);
 208:main_cm4.c    ****                 sprintf(bottom_line, "Normal Operation");
 209:main_cm4.c    ****                 print_two_sentence(top_line,bottom_line);
 210:main_cm4.c    **** 
 211:main_cm4.c    ****             }
 212:main_cm4.c    ****             last_state = state;
 213:main_cm4.c    **** 
 214:main_cm4.c    ****         }
 215:main_cm4.c    **** */                 
 216:main_cm4.c    **** 
 217:main_cm4.c    ****     if(Cy_GPIO_Read(sampleV_PORT,sampleV_NUM) == 0)
 218:main_cm4.c    ****     {
 219:main_cm4.c    ****         if(Cy_GPIO_Read(Estop_test_PORT,Estop_test_NUM) == 0 && (state == 1)) {
 220:main_cm4.c    ****             state = 2;
 221:main_cm4.c    ****             if (last_state != state)
 222:main_cm4.c    ****             {
 223:main_cm4.c    ****             sprintf(top_line, "ESTOP");
 224:main_cm4.c    ****             sprintf(bottom_line, "EMERGENCY");
 225:main_cm4.c    ****             print_two_sentence(top_line,bottom_line);
 226:main_cm4.c    ****             }
 227:main_cm4.c    ****             last_state = state;
 228:main_cm4.c    ****         
 229:main_cm4.c    ****         }
 230:main_cm4.c    ****         else if(Cy_GPIO_Read(Estop_test_PORT,Estop_test_NUM) != 0 && (state == 1))
 231:main_cm4.c    ****         {
 232:main_cm4.c    ****             Cy_SCB_I2C_Disable(SensorBus_HW, &SensorBus_context);
 233:main_cm4.c    ****             Cy_SCB_I2C_Enable(SensorBus_HW);
 234:main_cm4.c    ****         
 235:main_cm4.c    ****             
 236:main_cm4.c    ****             SensorBus_Start(); //I2C
 237:main_cm4.c    ****     
 238:main_cm4.c    ****             NVIC_EnableIRQ((IRQn_Type) SensorBus_SCB_IRQ_cfg.intrSrc); 
 239:main_cm4.c    **** 
 240:main_cm4.c    ****             register_setting.slaveAddress =LIS3DH_ADDRESS;
 241:main_cm4.c    ****             WriteRegister(CTRL_REG1, CR1_Settings); //going up to 400Hz
 242:main_cm4.c    ****             //WriteRegister(CTRL_REG3, CR3_Settings); //Sets up interupt tried(C0) no change
 243:main_cm4.c    ****             //WriteRegister(INT1_CFG, INT1_CFG_Settings); // //NO CHANGE
 244:main_cm4.c    ****             //WriteRegister(CLICK_CFG, CLICK_CFG_Settings); //Sets up config <-sets up double tap /
 245:main_cm4.c    **** 
 246:main_cm4.c    ****             WriteRegister(0x1F, 0b11000000); // temp_cfg_reg
 247:main_cm4.c    ****             WriteRegister(0x23, 0b10000000);
 248:main_cm4.c    ****             x = (int16_t)(ReadRegister(OUT_X_L, 1) | (ReadRegister(OUT_X_H, 1) << 8));
 249:main_cm4.c    ****             x_accl = ((2.0 * x) / 32767) * 9.8;
 250:main_cm4.c    ****             
 251:main_cm4.c    ****             if(x_accl < 100)
 252:main_cm4.c    ****             {
 253:main_cm4.c    ****                 state = 4;
 254:main_cm4.c    ****                 
 255:main_cm4.c    ****             if (last_state != state)
 256:main_cm4.c    ****             {
 257:main_cm4.c    ****             sprintf(top_line, "INERTIAL FAULT");
 258:main_cm4.c    ****             sprintf(bottom_line, "Accel Val:%.2f", x_accl);
ARM GAS  C:\Users\maxwe\AppData\Local\Temp\cchGHDkA.s 			page 6


 259:main_cm4.c    ****             print_two_sentence(top_line,bottom_line);
 260:main_cm4.c    ****             }
 261:main_cm4.c    ****             last_state = state;
 262:main_cm4.c    ****             }
 263:main_cm4.c    ****             else
 264:main_cm4.c    ****             {
 265:main_cm4.c    **** 
 266:main_cm4.c    ****             state = 3;
 267:main_cm4.c    ****             if (last_state != state)
 268:main_cm4.c    ****             {
 269:main_cm4.c    ****             sprintf(top_line, "INERTIAL");
 270:main_cm4.c    ****             sprintf(bottom_line, "EMERGENCY");
 271:main_cm4.c    ****             print_two_sentence(top_line,bottom_line);
 272:main_cm4.c    ****             }
 273:main_cm4.c    ****             last_state = state;
 274:main_cm4.c    ****         }
 275:main_cm4.c    ****     }
 276:main_cm4.c    ****     }
 277:main_cm4.c    ****     else
 278:main_cm4.c    ****     {
 279:main_cm4.c    ****         state = 1;
 280:main_cm4.c    ****         if (last_state != state)
 281:main_cm4.c    ****         {
 282:main_cm4.c    ****         sprintf(top_line, "Normal Operation");
 283:main_cm4.c    ****         sprintf(bottom_line, "Stay Alert");
 284:main_cm4.c    ****         print_two_sentence(top_line,bottom_line);
 285:main_cm4.c    ****         }
 286:main_cm4.c    ****         last_state = state;
 287:main_cm4.c    **** 
 288:main_cm4.c    ****     }
 289:main_cm4.c    ****     
 290:main_cm4.c    ****     if(state == 1)
 291:main_cm4.c    ****     {
 292:main_cm4.c    ****         Cy_GPIO_Write(fault_led_PORT,fault_led_NUM,0);
 293:main_cm4.c    ****         Cy_GPIO_Write(Inertial_emergency_LED_PORT,Inertial_emergency_LED_NUM,0);
 294:main_cm4.c    ****         Cy_GPIO_Write(Estop_emergency_LED_PORT,Estop_emergency_LED_NUM,0);
 295:main_cm4.c    ****     }
 296:main_cm4.c    ****     else if(state == 2)
 297:main_cm4.c    ****     {
 298:main_cm4.c    ****         Cy_GPIO_Write(fault_led_PORT,fault_led_NUM,0);
 299:main_cm4.c    ****         Cy_GPIO_Write(Inertial_emergency_LED_PORT,Inertial_emergency_LED_NUM,0);
 300:main_cm4.c    ****         
 301:main_cm4.c    ****         Cy_GPIO_Write(Estop_emergency_LED_PORT,Estop_emergency_LED_NUM,light_switch);
 302:main_cm4.c    ****     }
 303:main_cm4.c    ****     else if(state == 3)
 304:main_cm4.c    ****     {
 305:main_cm4.c    ****         Cy_GPIO_Write(fault_led_PORT,fault_led_NUM,0);
 306:main_cm4.c    ****         Cy_GPIO_Write(Inertial_emergency_LED_PORT,Inertial_emergency_LED_NUM,light_switch);
 307:main_cm4.c    ****     
 308:main_cm4.c    ****         Cy_GPIO_Write(Estop_emergency_LED_PORT,Estop_emergency_LED_NUM,0);
 309:main_cm4.c    ****         
 310:main_cm4.c    ****     }
 311:main_cm4.c    ****     else if (state == 4)
 312:main_cm4.c    ****     {
 313:main_cm4.c    ****         Cy_GPIO_Write(fault_led_PORT,fault_led_NUM,1);
 314:main_cm4.c    ****         
 315:main_cm4.c    ****         Cy_GPIO_Write(Inertial_emergency_LED_PORT,Inertial_emergency_LED_NUM,light_switch);
ARM GAS  C:\Users\maxwe\AppData\Local\Temp\cchGHDkA.s 			page 7


 316:main_cm4.c    ****         Cy_GPIO_Write(Estop_emergency_LED_PORT,Estop_emergency_LED_NUM,0);
 317:main_cm4.c    ****     
 318:main_cm4.c    ****     }
 319:main_cm4.c    ****     
 320:main_cm4.c    ****     if(light_switch == 1)
 321:main_cm4.c    ****     {
 322:main_cm4.c    ****         light_switch = 0;
 323:main_cm4.c    ****     } else
 324:main_cm4.c    ****     {
 325:main_cm4.c    ****         light_switch = 1;
 326:main_cm4.c    ****     }
 327:main_cm4.c    **** }
 328:main_cm4.c    **** }
 329:main_cm4.c    **** void print_two_sentence(char str_one[16], char str_two[16])
 330:main_cm4.c    **** {
 331:main_cm4.c    ****     CLCD_Init();
 332:main_cm4.c    ****     CyDelay(50);
 333:main_cm4.c    ****     do_clear();
 334:main_cm4.c    ****     go_to_top_line() ;
 335:main_cm4.c    ****     CLCD_PutString(str_one) ;
 336:main_cm4.c    ****     go_to_bottom_line();
 337:main_cm4.c    ****     CLCD_PutString(str_two);
 338:main_cm4.c    ****     CyDelay(50);
 339:main_cm4.c    **** }
 340:main_cm4.c    **** 
 341:main_cm4.c    **** 
 342:main_cm4.c    **** 
 343:main_cm4.c    **** 
 344:main_cm4.c    **** 
 345:main_cm4.c    **** 
 346:main_cm4.c    **** 
 347:main_cm4.c    **** 
 348:main_cm4.c    **** 
 349:main_cm4.c    **** 
 350:main_cm4.c    **** void go_to_top_line()
 351:main_cm4.c    **** {
 352:main_cm4.c    ****     int line = 1, col = 0;
 353:main_cm4.c    ****     int addr ;
 354:main_cm4.c    ****     //sscanf(str, "%*s %d %d", &line, &col) ;
 355:main_cm4.c    ****     if (line < 1) { 
 356:main_cm4.c    ****         line = 1 ;
 357:main_cm4.c    ****     }
 358:main_cm4.c    ****     if (line > CLCD_NUM_ROWS) {
 359:main_cm4.c    ****         line = CLCD_NUM_ROWS ;
 360:main_cm4.c    ****     }
 361:main_cm4.c    ****     if (col < 1) {
 362:main_cm4.c    ****         col = 1 ;
 363:main_cm4.c    ****     } 
 364:main_cm4.c    ****     if (col > CLCD_NUM_COLS) {
 365:main_cm4.c    ****         col = CLCD_NUM_COLS ;
 366:main_cm4.c    ****     }
 367:main_cm4.c    ****     addr = 0x40 * (line-1) + (col-1) ;
 368:main_cm4.c    ****     CLCD_SetDDRAMAddr(addr) ;
 369:main_cm4.c    ****     
 370:main_cm4.c    ****     
 371:main_cm4.c    **** }
 372:main_cm4.c    **** 
ARM GAS  C:\Users\maxwe\AppData\Local\Temp\cchGHDkA.s 			page 8


 373:main_cm4.c    **** 
 374:main_cm4.c    **** 
 375:main_cm4.c    **** 
 376:main_cm4.c    **** 
 377:main_cm4.c    **** void go_to_bottom_line()
 378:main_cm4.c    **** {
 379:main_cm4.c    ****     int line = 2, col = 0;
 380:main_cm4.c    ****     int addr ;
 381:main_cm4.c    ****     //sscanf(str, "%*s %d %d", &line, &col) ;
 382:main_cm4.c    ****     if (line < 1) { 
 383:main_cm4.c    ****         line = 1 ;
 384:main_cm4.c    ****     }
 385:main_cm4.c    ****     if (line > CLCD_NUM_ROWS) {
 386:main_cm4.c    ****         line = CLCD_NUM_ROWS ;
 387:main_cm4.c    ****     }
 388:main_cm4.c    ****     if (col < 1) {
 389:main_cm4.c    ****         col = 1 ;
 390:main_cm4.c    ****     } 
 391:main_cm4.c    ****     if (col > CLCD_NUM_COLS) {
 392:main_cm4.c    ****         col = CLCD_NUM_COLS ;
 393:main_cm4.c    ****     }
 394:main_cm4.c    ****     addr = 0x40 * (line-1) + (col-1) ;
 395:main_cm4.c    ****     CLCD_SetDDRAMAddr(addr) ;
 396:main_cm4.c    **** }
 397:main_cm4.c    **** 
 398:main_cm4.c    **** 
 399:main_cm4.c    **** 
 400:main_cm4.c    **** void do_clear(void) 
 401:main_cm4.c    **** {
 402:main_cm4.c    ****     CLCD_Clear() ;
 403:main_cm4.c    **** }
 404:main_cm4.c    **** 
 405:main_cm4.c    **** void do_write(void) 
 406:main_cm4.c    **** {
 407:main_cm4.c    ****     int c ;
 408:main_cm4.c    ****     //sscanf(str, "%*s %x", &c) ;
 409:main_cm4.c    ****     CLCD_WriteData(c & 0xFF) ;
 410:main_cm4.c    **** }
 411:main_cm4.c    **** 
 412:main_cm4.c    **** void do_SetDDRAddr(void) 
 413:main_cm4.c    **** {
 414:main_cm4.c    ****     int addr ;
 415:main_cm4.c    ****     //sscanf(str, "%*s %x", &addr) ;
 416:main_cm4.c    ****     CLCD_SetDDRAMAddr(addr) ;
 417:main_cm4.c    **** }
 418:main_cm4.c    **** 
 419:main_cm4.c    **** void do_SetCGRAMAddr(void) 
 420:main_cm4.c    **** {
 421:main_cm4.c    ****     int addr ;
 422:main_cm4.c    ****     //sscanf(str, "%*s %x", &addr) ;
 423:main_cm4.c    ****     CLCD_SetCGRAMAddr(addr) ;    
 424:main_cm4.c    **** }
 425:main_cm4.c    **** 
 426:main_cm4.c    **** void do_Command(void) 
 427:main_cm4.c    **** {
 428:main_cm4.c    ****     int cmd ;
 429:main_cm4.c    ****     
ARM GAS  C:\Users\maxwe\AppData\Local\Temp\cchGHDkA.s 			page 9


 430:main_cm4.c    ****     //sscanf(str, "%*s %x", &cmd) ;
 431:main_cm4.c    ****     CLCD_WriteCommand(cmd) ;
 432:main_cm4.c    **** }
 433:main_cm4.c    **** 
 434:main_cm4.c    **** void do_print(void)
 435:main_cm4.c    **** {
 436:main_cm4.c    ****     char buf[81] ;
 437:main_cm4.c    ****     //sscanf(str, "%*s %s", buf) ;
 438:main_cm4.c    ****     CLCD_PutString(buf) ;
 439:main_cm4.c    **** }
 440:main_cm4.c    **** 
 441:main_cm4.c    **** void do_pos(void)
 442:main_cm4.c    **** {
 443:main_cm4.c    ****     int line, col ;
 444:main_cm4.c    ****     int addr ;
 445:main_cm4.c    ****     //sscanf(str, "%*s %d %d", &line, &col) ;
 446:main_cm4.c    ****     if (line < 1) { 
 447:main_cm4.c    ****         line = 1 ;
 448:main_cm4.c    ****     }
 449:main_cm4.c    ****     if (line > CLCD_NUM_ROWS) {
 450:main_cm4.c    ****         line = CLCD_NUM_ROWS ;
 451:main_cm4.c    ****     }
 452:main_cm4.c    ****     if (col < 1) {
 453:main_cm4.c    ****         col = 1 ;
 454:main_cm4.c    ****     } 
 455:main_cm4.c    ****     if (col > CLCD_NUM_COLS) {
 456:main_cm4.c    ****         col = CLCD_NUM_COLS ;
 457:main_cm4.c    ****     }
 458:main_cm4.c    ****     addr = 0x40 * (line-1) + (col-1) ;
 459:main_cm4.c    ****     CLCD_SetDDRAMAddr(addr) ;
 460:main_cm4.c    **** }
 461:main_cm4.c    **** 
 462:main_cm4.c    **** void do_reset(void)
 463:main_cm4.c    **** {
 464:main_cm4.c    ****     CLCD_Init() ;
 465:main_cm4.c    **** }
 466:main_cm4.c    **** 
 467:main_cm4.c    **** 
 468:main_cm4.c    **** 
 469:main_cm4.c    **** 
 470:main_cm4.c    **** 
 471:main_cm4.c    **** 
 472:main_cm4.c    **** 
 473:main_cm4.c    **** static void WaitForOperation()
 474:main_cm4.c    **** {
  28              		.loc 1 474 0
  29              		.cfi_startproc
  30              		@ args = 0, pretend = 0, frame = 0
  31              		@ frame_needed = 0, uses_anonymous_args = 0
  32 0000 08B5     		push	{r3, lr}
  33              		.cfi_def_cfa_offset 8
  34              		.cfi_offset 3, -8
  35              		.cfi_offset 14, -4
  36              	.L2:
  37              	.LBB62:
  38              	.LBB63:
  39              		.file 2 "Generated_Source\\PSoC6/SensorBus.h"
ARM GAS  C:\Users\maxwe\AppData\Local\Temp\cchGHDkA.s 			page 10


   1:Generated_Source\PSoC6/SensorBus.h **** /***************************************************************************//**
   2:Generated_Source\PSoC6/SensorBus.h **** * \file SensorBus.c
   3:Generated_Source\PSoC6/SensorBus.h **** * \version 2.0
   4:Generated_Source\PSoC6/SensorBus.h **** *
   5:Generated_Source\PSoC6/SensorBus.h **** *  This file provides constants and parameter values for the I2C component.
   6:Generated_Source\PSoC6/SensorBus.h **** *
   7:Generated_Source\PSoC6/SensorBus.h **** ********************************************************************************
   8:Generated_Source\PSoC6/SensorBus.h **** * \copyright
   9:Generated_Source\PSoC6/SensorBus.h **** * Copyright 2016-2017, Cypress Semiconductor Corporation. All rights reserved.
  10:Generated_Source\PSoC6/SensorBus.h **** * You may use this file only in accordance with the license, terms, conditions,
  11:Generated_Source\PSoC6/SensorBus.h **** * disclaimers, and limitations in the end user license agreement accompanying
  12:Generated_Source\PSoC6/SensorBus.h **** * the software package with which this file was provided.
  13:Generated_Source\PSoC6/SensorBus.h **** *******************************************************************************/
  14:Generated_Source\PSoC6/SensorBus.h **** 
  15:Generated_Source\PSoC6/SensorBus.h **** #if !defined(SensorBus_CY_SCB_I2C_PDL_H)
  16:Generated_Source\PSoC6/SensorBus.h **** #define SensorBus_CY_SCB_I2C_PDL_H
  17:Generated_Source\PSoC6/SensorBus.h **** 
  18:Generated_Source\PSoC6/SensorBus.h **** #include "cyfitter.h"
  19:Generated_Source\PSoC6/SensorBus.h **** #include "scb/cy_scb_i2c.h"
  20:Generated_Source\PSoC6/SensorBus.h **** 
  21:Generated_Source\PSoC6/SensorBus.h **** #if defined(__cplusplus)
  22:Generated_Source\PSoC6/SensorBus.h **** extern "C" {
  23:Generated_Source\PSoC6/SensorBus.h **** #endif
  24:Generated_Source\PSoC6/SensorBus.h **** 
  25:Generated_Source\PSoC6/SensorBus.h **** /***************************************
  26:Generated_Source\PSoC6/SensorBus.h **** *   Initial Parameter Constants
  27:Generated_Source\PSoC6/SensorBus.h **** ****************************************/
  28:Generated_Source\PSoC6/SensorBus.h **** 
  29:Generated_Source\PSoC6/SensorBus.h **** #define SensorBus_MODE               (0x2U)
  30:Generated_Source\PSoC6/SensorBus.h **** #define SensorBus_MODE_SLAVE_MASK    (0x1U)
  31:Generated_Source\PSoC6/SensorBus.h **** #define SensorBus_MODE_MASTER_MASK   (0x2U)
  32:Generated_Source\PSoC6/SensorBus.h **** 
  33:Generated_Source\PSoC6/SensorBus.h **** #define SensorBus_ENABLE_SLAVE       (0UL != (SensorBus_MODE & SensorBus_MODE_SLAVE_MASK))
  34:Generated_Source\PSoC6/SensorBus.h **** #define SensorBus_ENABLE_MASTER      (0UL != (SensorBus_MODE & SensorBus_MODE_MASTER_MASK))
  35:Generated_Source\PSoC6/SensorBus.h **** #define SensorBus_MANUAL_SCL_CONTROL (0U)
  36:Generated_Source\PSoC6/SensorBus.h **** 
  37:Generated_Source\PSoC6/SensorBus.h **** 
  38:Generated_Source\PSoC6/SensorBus.h **** /***************************************
  39:Generated_Source\PSoC6/SensorBus.h **** *        Function Prototypes
  40:Generated_Source\PSoC6/SensorBus.h **** ***************************************/
  41:Generated_Source\PSoC6/SensorBus.h **** /**
  42:Generated_Source\PSoC6/SensorBus.h **** * \addtogroup group_general
  43:Generated_Source\PSoC6/SensorBus.h **** * @{
  44:Generated_Source\PSoC6/SensorBus.h **** */
  45:Generated_Source\PSoC6/SensorBus.h **** /* Component only APIs. */
  46:Generated_Source\PSoC6/SensorBus.h **** void SensorBus_Start(void);
  47:Generated_Source\PSoC6/SensorBus.h **** 
  48:Generated_Source\PSoC6/SensorBus.h **** /* Basic functions. */
  49:Generated_Source\PSoC6/SensorBus.h **** __STATIC_INLINE cy_en_scb_i2c_status_t SensorBus_Init(cy_stc_scb_i2c_config_t const *config);
  50:Generated_Source\PSoC6/SensorBus.h **** __STATIC_INLINE void SensorBus_DeInit (void);
  51:Generated_Source\PSoC6/SensorBus.h **** __STATIC_INLINE void SensorBus_Enable (void);
  52:Generated_Source\PSoC6/SensorBus.h **** __STATIC_INLINE void SensorBus_Disable(void);
  53:Generated_Source\PSoC6/SensorBus.h **** 
  54:Generated_Source\PSoC6/SensorBus.h **** /* Data rate configuration functions. */
  55:Generated_Source\PSoC6/SensorBus.h **** __STATIC_INLINE uint32_t SensorBus_SetDataRate(uint32_t dataRateHz, uint32_t scbClockHz);
  56:Generated_Source\PSoC6/SensorBus.h **** __STATIC_INLINE uint32_t SensorBus_GetDataRate(uint32_t scbClockHz);
  57:Generated_Source\PSoC6/SensorBus.h **** 
ARM GAS  C:\Users\maxwe\AppData\Local\Temp\cchGHDkA.s 			page 11


  58:Generated_Source\PSoC6/SensorBus.h **** /* Register callbacks. */
  59:Generated_Source\PSoC6/SensorBus.h **** __STATIC_INLINE void SensorBus_RegisterEventCallback(cy_cb_scb_i2c_handle_events_t callback);
  60:Generated_Source\PSoC6/SensorBus.h **** #if (SensorBus_ENABLE_SLAVE)
  61:Generated_Source\PSoC6/SensorBus.h **** __STATIC_INLINE void SensorBus_RegisterAddrCallback (cy_cb_scb_i2c_handle_addr_t callback);
  62:Generated_Source\PSoC6/SensorBus.h **** #endif /* (SensorBus_ENABLE_SLAVE) */
  63:Generated_Source\PSoC6/SensorBus.h **** 
  64:Generated_Source\PSoC6/SensorBus.h **** /* Configuration functions. */
  65:Generated_Source\PSoC6/SensorBus.h **** #if (SensorBus_ENABLE_SLAVE)
  66:Generated_Source\PSoC6/SensorBus.h **** __STATIC_INLINE void     SensorBus_SlaveSetAddress(uint8_t addr);
  67:Generated_Source\PSoC6/SensorBus.h **** __STATIC_INLINE uint32_t SensorBus_SlaveGetAddress(void);
  68:Generated_Source\PSoC6/SensorBus.h **** __STATIC_INLINE void     SensorBus_SlaveSetAddressMask(uint8_t addrMask);
  69:Generated_Source\PSoC6/SensorBus.h **** __STATIC_INLINE uint32_t SensorBus_SlaveGetAddressMask(void);
  70:Generated_Source\PSoC6/SensorBus.h **** #endif /* (SensorBus_ENABLE_SLAVE) */
  71:Generated_Source\PSoC6/SensorBus.h **** 
  72:Generated_Source\PSoC6/SensorBus.h **** #if (SensorBus_ENABLE_MASTER)
  73:Generated_Source\PSoC6/SensorBus.h **** __STATIC_INLINE void SensorBus_MasterSetLowPhaseDutyCycle (uint32_t clockCycles);
  74:Generated_Source\PSoC6/SensorBus.h **** __STATIC_INLINE void SensorBus_MasterSetHighPhaseDutyCycle(uint32_t clockCycles);
  75:Generated_Source\PSoC6/SensorBus.h **** #endif /* (SensorBus_ENABLE_MASTER) */
  76:Generated_Source\PSoC6/SensorBus.h **** 
  77:Generated_Source\PSoC6/SensorBus.h **** /* Bus status. */
  78:Generated_Source\PSoC6/SensorBus.h **** __STATIC_INLINE bool     SensorBus_IsBusBusy(void);
  79:Generated_Source\PSoC6/SensorBus.h **** 
  80:Generated_Source\PSoC6/SensorBus.h **** /* Slave functions. */
  81:Generated_Source\PSoC6/SensorBus.h **** #if (SensorBus_ENABLE_SLAVE)
  82:Generated_Source\PSoC6/SensorBus.h **** __STATIC_INLINE uint32_t SensorBus_SlaveGetStatus(void);
  83:Generated_Source\PSoC6/SensorBus.h **** 
  84:Generated_Source\PSoC6/SensorBus.h **** __STATIC_INLINE void     SensorBus_SlaveConfigReadBuf(uint8_t *buffer, uint32_t size);
  85:Generated_Source\PSoC6/SensorBus.h **** __STATIC_INLINE void     SensorBus_SlaveAbortRead(void);
  86:Generated_Source\PSoC6/SensorBus.h **** __STATIC_INLINE uint32_t SensorBus_SlaveGetReadTransferCount(void);
  87:Generated_Source\PSoC6/SensorBus.h **** __STATIC_INLINE uint32_t SensorBus_SlaveClearReadStatus(void);
  88:Generated_Source\PSoC6/SensorBus.h **** 
  89:Generated_Source\PSoC6/SensorBus.h **** __STATIC_INLINE void     SensorBus_SlaveConfigWriteBuf(uint8_t *buffer, uint32_t size);
  90:Generated_Source\PSoC6/SensorBus.h **** __STATIC_INLINE void     SensorBus_SlaveAbortWrite(void);
  91:Generated_Source\PSoC6/SensorBus.h **** __STATIC_INLINE uint32_t SensorBus_SlaveGetWriteTransferCount(void);
  92:Generated_Source\PSoC6/SensorBus.h **** __STATIC_INLINE uint32_t SensorBus_SlaveClearWriteStatus(void);
  93:Generated_Source\PSoC6/SensorBus.h **** #endif /* (SensorBus_ENABLE_SLAVE) */
  94:Generated_Source\PSoC6/SensorBus.h **** 
  95:Generated_Source\PSoC6/SensorBus.h **** /* Master interrupt processing functions. */
  96:Generated_Source\PSoC6/SensorBus.h **** #if (SensorBus_ENABLE_MASTER)
  97:Generated_Source\PSoC6/SensorBus.h **** __STATIC_INLINE uint32_t SensorBus_MasterGetStatus(void);
  98:Generated_Source\PSoC6/SensorBus.h **** 
  99:Generated_Source\PSoC6/SensorBus.h **** __STATIC_INLINE cy_en_scb_i2c_status_t SensorBus_MasterRead(cy_stc_scb_i2c_master_xfer_config_t *xf
 100:Generated_Source\PSoC6/SensorBus.h **** __STATIC_INLINE void SensorBus_MasterAbortRead(void);
 101:Generated_Source\PSoC6/SensorBus.h **** __STATIC_INLINE cy_en_scb_i2c_status_t SensorBus_MasterWrite(cy_stc_scb_i2c_master_xfer_config_t *x
 102:Generated_Source\PSoC6/SensorBus.h **** __STATIC_INLINE void SensorBus_MasterAbortWrite(void);
 103:Generated_Source\PSoC6/SensorBus.h **** __STATIC_INLINE uint32_t SensorBus_MasterGetTransferCount(void);
 104:Generated_Source\PSoC6/SensorBus.h **** 
 105:Generated_Source\PSoC6/SensorBus.h **** /* Master manual processing functions. */
 106:Generated_Source\PSoC6/SensorBus.h **** __STATIC_INLINE cy_en_scb_i2c_status_t SensorBus_MasterSendStart(uint32_t address, cy_en_scb_i2c_di
 107:Generated_Source\PSoC6/SensorBus.h **** __STATIC_INLINE cy_en_scb_i2c_status_t SensorBus_MasterSendReStart(uint32_t address, cy_en_scb_i2c_
 108:Generated_Source\PSoC6/SensorBus.h **** __STATIC_INLINE cy_en_scb_i2c_status_t SensorBus_MasterSendStop(uint32_t timeoutMs);
 109:Generated_Source\PSoC6/SensorBus.h **** __STATIC_INLINE cy_en_scb_i2c_status_t SensorBus_MasterReadByte(cy_en_scb_i2c_command_t ackNack, ui
 110:Generated_Source\PSoC6/SensorBus.h **** __STATIC_INLINE cy_en_scb_i2c_status_t SensorBus_MasterWriteByte(uint8_t byte, uint32_t timeoutMs);
 111:Generated_Source\PSoC6/SensorBus.h **** #endif /* (SensorBus_ENABLE_MASTER) */
 112:Generated_Source\PSoC6/SensorBus.h **** 
 113:Generated_Source\PSoC6/SensorBus.h **** /* Interrupt handler. */
 114:Generated_Source\PSoC6/SensorBus.h **** __STATIC_INLINE void SensorBus_Interrupt(void);
ARM GAS  C:\Users\maxwe\AppData\Local\Temp\cchGHDkA.s 			page 12


 115:Generated_Source\PSoC6/SensorBus.h **** /** @} group_general */
 116:Generated_Source\PSoC6/SensorBus.h **** 
 117:Generated_Source\PSoC6/SensorBus.h **** 
 118:Generated_Source\PSoC6/SensorBus.h **** /***************************************
 119:Generated_Source\PSoC6/SensorBus.h **** *    Variables with External Linkage
 120:Generated_Source\PSoC6/SensorBus.h **** ***************************************/
 121:Generated_Source\PSoC6/SensorBus.h **** /**
 122:Generated_Source\PSoC6/SensorBus.h **** * \addtogroup group_globals
 123:Generated_Source\PSoC6/SensorBus.h **** * @{
 124:Generated_Source\PSoC6/SensorBus.h **** */
 125:Generated_Source\PSoC6/SensorBus.h **** extern uint8_t SensorBus_initVar;
 126:Generated_Source\PSoC6/SensorBus.h **** extern cy_stc_scb_i2c_config_t const SensorBus_config;
 127:Generated_Source\PSoC6/SensorBus.h **** extern cy_stc_scb_i2c_context_t SensorBus_context;
 128:Generated_Source\PSoC6/SensorBus.h **** /** @} group_globals */
 129:Generated_Source\PSoC6/SensorBus.h **** 
 130:Generated_Source\PSoC6/SensorBus.h **** 
 131:Generated_Source\PSoC6/SensorBus.h **** /***************************************
 132:Generated_Source\PSoC6/SensorBus.h **** *         Preprocessor Macros
 133:Generated_Source\PSoC6/SensorBus.h **** ***************************************/
 134:Generated_Source\PSoC6/SensorBus.h **** /**
 135:Generated_Source\PSoC6/SensorBus.h **** * \addtogroup group_macros
 136:Generated_Source\PSoC6/SensorBus.h **** * @{
 137:Generated_Source\PSoC6/SensorBus.h **** */
 138:Generated_Source\PSoC6/SensorBus.h **** /** The pointer to the base address of the SCB instance */
 139:Generated_Source\PSoC6/SensorBus.h **** #define SensorBus_HW     ((CySCB_Type *) SensorBus_SCB__HW)
 140:Generated_Source\PSoC6/SensorBus.h **** 
 141:Generated_Source\PSoC6/SensorBus.h **** /** The desired data rate in Hz */
 142:Generated_Source\PSoC6/SensorBus.h **** #define SensorBus_DATA_RATE_HZ      (100000U)
 143:Generated_Source\PSoC6/SensorBus.h **** 
 144:Generated_Source\PSoC6/SensorBus.h **** /** The frequency of the clock used by the Component in Hz */
 145:Generated_Source\PSoC6/SensorBus.h **** #define SensorBus_CLK_FREQ_HZ       (1562500U)
 146:Generated_Source\PSoC6/SensorBus.h **** 
 147:Generated_Source\PSoC6/SensorBus.h **** /** The number of Component clocks used by the master to generate the SCL
 148:Generated_Source\PSoC6/SensorBus.h **** * low phase. This number is calculated by GUI based on the selected data rate.
 149:Generated_Source\PSoC6/SensorBus.h **** */
 150:Generated_Source\PSoC6/SensorBus.h **** #define SensorBus_LOW_PHASE_DUTY_CYCLE   (8U)
 151:Generated_Source\PSoC6/SensorBus.h **** 
 152:Generated_Source\PSoC6/SensorBus.h **** /** The number of Component clocks used by the master to generate the SCL
 153:Generated_Source\PSoC6/SensorBus.h **** * high phase. This number is calculated by GUI based on the selected data rate.
 154:Generated_Source\PSoC6/SensorBus.h **** */
 155:Generated_Source\PSoC6/SensorBus.h **** #define SensorBus_HIGH_PHASE_DUTY_CYCLE  (8U)
 156:Generated_Source\PSoC6/SensorBus.h **** /** @} group_macros */
 157:Generated_Source\PSoC6/SensorBus.h **** 
 158:Generated_Source\PSoC6/SensorBus.h **** 
 159:Generated_Source\PSoC6/SensorBus.h **** /***************************************
 160:Generated_Source\PSoC6/SensorBus.h **** *    In-line Function Implementation
 161:Generated_Source\PSoC6/SensorBus.h **** ***************************************/
 162:Generated_Source\PSoC6/SensorBus.h **** 
 163:Generated_Source\PSoC6/SensorBus.h **** /*******************************************************************************
 164:Generated_Source\PSoC6/SensorBus.h **** * Function Name: SensorBus_Init
 165:Generated_Source\PSoC6/SensorBus.h **** ****************************************************************************//**
 166:Generated_Source\PSoC6/SensorBus.h **** *
 167:Generated_Source\PSoC6/SensorBus.h **** * Invokes the Cy_SCB_I2C_Init() PDL driver function.
 168:Generated_Source\PSoC6/SensorBus.h **** *
 169:Generated_Source\PSoC6/SensorBus.h **** *******************************************************************************/
 170:Generated_Source\PSoC6/SensorBus.h **** __STATIC_INLINE cy_en_scb_i2c_status_t SensorBus_Init(cy_stc_scb_i2c_config_t const *config)
 171:Generated_Source\PSoC6/SensorBus.h **** {
ARM GAS  C:\Users\maxwe\AppData\Local\Temp\cchGHDkA.s 			page 13


 172:Generated_Source\PSoC6/SensorBus.h ****     return Cy_SCB_I2C_Init(SensorBus_HW, config, &SensorBus_context);
 173:Generated_Source\PSoC6/SensorBus.h **** }
 174:Generated_Source\PSoC6/SensorBus.h **** 
 175:Generated_Source\PSoC6/SensorBus.h **** 
 176:Generated_Source\PSoC6/SensorBus.h **** /*******************************************************************************
 177:Generated_Source\PSoC6/SensorBus.h **** *  Function Name: SensorBus_DeInit
 178:Generated_Source\PSoC6/SensorBus.h **** ****************************************************************************//**
 179:Generated_Source\PSoC6/SensorBus.h **** *
 180:Generated_Source\PSoC6/SensorBus.h **** * Invokes the Cy_SCB_I2C_DeInit() PDL driver function.
 181:Generated_Source\PSoC6/SensorBus.h **** *
 182:Generated_Source\PSoC6/SensorBus.h **** *******************************************************************************/
 183:Generated_Source\PSoC6/SensorBus.h **** __STATIC_INLINE void SensorBus_DeInit(void)
 184:Generated_Source\PSoC6/SensorBus.h **** {
 185:Generated_Source\PSoC6/SensorBus.h ****     Cy_SCB_I2C_DeInit(SensorBus_HW);
 186:Generated_Source\PSoC6/SensorBus.h **** }
 187:Generated_Source\PSoC6/SensorBus.h **** 
 188:Generated_Source\PSoC6/SensorBus.h **** 
 189:Generated_Source\PSoC6/SensorBus.h **** /*******************************************************************************
 190:Generated_Source\PSoC6/SensorBus.h **** * Function Name: SensorBus_Enable
 191:Generated_Source\PSoC6/SensorBus.h **** ****************************************************************************//**
 192:Generated_Source\PSoC6/SensorBus.h **** *
 193:Generated_Source\PSoC6/SensorBus.h **** * Invokes the Cy_SCB_I2C_Enable() PDL driver function.
 194:Generated_Source\PSoC6/SensorBus.h **** *
 195:Generated_Source\PSoC6/SensorBus.h **** *******************************************************************************/
 196:Generated_Source\PSoC6/SensorBus.h **** __STATIC_INLINE void SensorBus_Enable(void)
 197:Generated_Source\PSoC6/SensorBus.h **** {
 198:Generated_Source\PSoC6/SensorBus.h ****     Cy_SCB_I2C_Enable(SensorBus_HW);
 199:Generated_Source\PSoC6/SensorBus.h **** }
 200:Generated_Source\PSoC6/SensorBus.h **** 
 201:Generated_Source\PSoC6/SensorBus.h **** 
 202:Generated_Source\PSoC6/SensorBus.h **** /*******************************************************************************
 203:Generated_Source\PSoC6/SensorBus.h **** * Function Name: SensorBus_Disable
 204:Generated_Source\PSoC6/SensorBus.h **** ****************************************************************************//**
 205:Generated_Source\PSoC6/SensorBus.h **** *
 206:Generated_Source\PSoC6/SensorBus.h **** * Invokes the Cy_SCB_I2C_Disable() PDL driver function.
 207:Generated_Source\PSoC6/SensorBus.h **** *
 208:Generated_Source\PSoC6/SensorBus.h **** *******************************************************************************/
 209:Generated_Source\PSoC6/SensorBus.h **** __STATIC_INLINE void SensorBus_Disable(void)
 210:Generated_Source\PSoC6/SensorBus.h **** {
 211:Generated_Source\PSoC6/SensorBus.h ****     Cy_SCB_I2C_Disable(SensorBus_HW, &SensorBus_context);
 212:Generated_Source\PSoC6/SensorBus.h **** }
 213:Generated_Source\PSoC6/SensorBus.h **** 
 214:Generated_Source\PSoC6/SensorBus.h **** 
 215:Generated_Source\PSoC6/SensorBus.h **** /*******************************************************************************
 216:Generated_Source\PSoC6/SensorBus.h **** * Function Name: SensorBus_SetDataRate
 217:Generated_Source\PSoC6/SensorBus.h **** ****************************************************************************//**
 218:Generated_Source\PSoC6/SensorBus.h **** *
 219:Generated_Source\PSoC6/SensorBus.h **** * Invokes the Cy_SCB_I2C_SetDataRate() PDL driver function.
 220:Generated_Source\PSoC6/SensorBus.h **** *
 221:Generated_Source\PSoC6/SensorBus.h **** *******************************************************************************/
 222:Generated_Source\PSoC6/SensorBus.h **** __STATIC_INLINE uint32_t SensorBus_SetDataRate(uint32_t dataRateHz, uint32_t scbClockHz)
 223:Generated_Source\PSoC6/SensorBus.h **** {
 224:Generated_Source\PSoC6/SensorBus.h ****     return Cy_SCB_I2C_SetDataRate(SensorBus_HW, dataRateHz, scbClockHz);
 225:Generated_Source\PSoC6/SensorBus.h **** }
 226:Generated_Source\PSoC6/SensorBus.h **** 
 227:Generated_Source\PSoC6/SensorBus.h **** 
 228:Generated_Source\PSoC6/SensorBus.h **** /*******************************************************************************
ARM GAS  C:\Users\maxwe\AppData\Local\Temp\cchGHDkA.s 			page 14


 229:Generated_Source\PSoC6/SensorBus.h **** * Function Name: SensorBus_GetDataRate
 230:Generated_Source\PSoC6/SensorBus.h **** ****************************************************************************//**
 231:Generated_Source\PSoC6/SensorBus.h **** *
 232:Generated_Source\PSoC6/SensorBus.h **** * Invokes the Cy_SCB_I2C_GetDataRate() PDL driver function.
 233:Generated_Source\PSoC6/SensorBus.h **** *
 234:Generated_Source\PSoC6/SensorBus.h **** *******************************************************************************/
 235:Generated_Source\PSoC6/SensorBus.h **** __STATIC_INLINE uint32_t SensorBus_GetDataRate(uint32_t scbClockHz)
 236:Generated_Source\PSoC6/SensorBus.h **** {
 237:Generated_Source\PSoC6/SensorBus.h ****     return Cy_SCB_I2C_GetDataRate(SensorBus_HW, scbClockHz);
 238:Generated_Source\PSoC6/SensorBus.h **** }
 239:Generated_Source\PSoC6/SensorBus.h **** 
 240:Generated_Source\PSoC6/SensorBus.h **** 
 241:Generated_Source\PSoC6/SensorBus.h **** /*******************************************************************************
 242:Generated_Source\PSoC6/SensorBus.h **** * Function Name: SensorBus_RegisterEventCallback
 243:Generated_Source\PSoC6/SensorBus.h **** ****************************************************************************//**
 244:Generated_Source\PSoC6/SensorBus.h **** *
 245:Generated_Source\PSoC6/SensorBus.h **** * Invokes the Cy_SCB_I2C_RegisterEventCallback() PDL driver function.
 246:Generated_Source\PSoC6/SensorBus.h **** *
 247:Generated_Source\PSoC6/SensorBus.h **** *******************************************************************************/
 248:Generated_Source\PSoC6/SensorBus.h **** __STATIC_INLINE void SensorBus_RegisterEventCallback(cy_cb_scb_i2c_handle_events_t callback)
 249:Generated_Source\PSoC6/SensorBus.h **** {
 250:Generated_Source\PSoC6/SensorBus.h ****     Cy_SCB_I2C_RegisterEventCallback(SensorBus_HW, callback, &SensorBus_context);
 251:Generated_Source\PSoC6/SensorBus.h **** }
 252:Generated_Source\PSoC6/SensorBus.h **** 
 253:Generated_Source\PSoC6/SensorBus.h **** 
 254:Generated_Source\PSoC6/SensorBus.h **** #if (SensorBus_ENABLE_SLAVE)
 255:Generated_Source\PSoC6/SensorBus.h **** /*******************************************************************************
 256:Generated_Source\PSoC6/SensorBus.h **** * Function Name: SensorBus_RegisterAddrCallback
 257:Generated_Source\PSoC6/SensorBus.h **** ****************************************************************************//**
 258:Generated_Source\PSoC6/SensorBus.h **** *
 259:Generated_Source\PSoC6/SensorBus.h **** * Invokes the Cy_SCB_I2C_RegisterAddrCallback() PDL driver function.
 260:Generated_Source\PSoC6/SensorBus.h **** *
 261:Generated_Source\PSoC6/SensorBus.h **** *******************************************************************************/
 262:Generated_Source\PSoC6/SensorBus.h **** __STATIC_INLINE void SensorBus_RegisterAddrCallback(cy_cb_scb_i2c_handle_addr_t callback)
 263:Generated_Source\PSoC6/SensorBus.h **** {
 264:Generated_Source\PSoC6/SensorBus.h ****     Cy_SCB_I2C_RegisterAddrCallback(SensorBus_HW, callback, &SensorBus_context);
 265:Generated_Source\PSoC6/SensorBus.h **** }
 266:Generated_Source\PSoC6/SensorBus.h **** #endif /* (SensorBus_ENABLE_SLAVE) */
 267:Generated_Source\PSoC6/SensorBus.h **** 
 268:Generated_Source\PSoC6/SensorBus.h **** 
 269:Generated_Source\PSoC6/SensorBus.h **** /*******************************************************************************
 270:Generated_Source\PSoC6/SensorBus.h **** * Function Name: SensorBus_IsBusBusy
 271:Generated_Source\PSoC6/SensorBus.h **** ****************************************************************************//**
 272:Generated_Source\PSoC6/SensorBus.h **** *
 273:Generated_Source\PSoC6/SensorBus.h **** * Invokes the Cy_SCB_I2C_IsBusBusy() PDL driver function.
 274:Generated_Source\PSoC6/SensorBus.h **** *
 275:Generated_Source\PSoC6/SensorBus.h **** *******************************************************************************/
 276:Generated_Source\PSoC6/SensorBus.h **** __STATIC_INLINE bool SensorBus_IsBusBusy(void)
 277:Generated_Source\PSoC6/SensorBus.h **** {
 278:Generated_Source\PSoC6/SensorBus.h ****     return Cy_SCB_I2C_IsBusBusy(SensorBus_HW);
 279:Generated_Source\PSoC6/SensorBus.h **** }
 280:Generated_Source\PSoC6/SensorBus.h **** 
 281:Generated_Source\PSoC6/SensorBus.h **** 
 282:Generated_Source\PSoC6/SensorBus.h **** #if (SensorBus_ENABLE_SLAVE)
 283:Generated_Source\PSoC6/SensorBus.h **** /*******************************************************************************
 284:Generated_Source\PSoC6/SensorBus.h **** * Function Name: SensorBus_SlaveSetAddress
 285:Generated_Source\PSoC6/SensorBus.h **** ****************************************************************************//**
ARM GAS  C:\Users\maxwe\AppData\Local\Temp\cchGHDkA.s 			page 15


 286:Generated_Source\PSoC6/SensorBus.h **** *
 287:Generated_Source\PSoC6/SensorBus.h **** * Invokes the Cy_SCB_I2C_SlaveGetAddress() PDL driver function.
 288:Generated_Source\PSoC6/SensorBus.h **** *
 289:Generated_Source\PSoC6/SensorBus.h **** *******************************************************************************/
 290:Generated_Source\PSoC6/SensorBus.h **** __STATIC_INLINE void SensorBus_SlaveSetAddress(uint8_t addr)
 291:Generated_Source\PSoC6/SensorBus.h **** {
 292:Generated_Source\PSoC6/SensorBus.h ****     Cy_SCB_I2C_SlaveSetAddress(SensorBus_HW, addr);
 293:Generated_Source\PSoC6/SensorBus.h **** }
 294:Generated_Source\PSoC6/SensorBus.h **** 
 295:Generated_Source\PSoC6/SensorBus.h **** 
 296:Generated_Source\PSoC6/SensorBus.h **** /*******************************************************************************
 297:Generated_Source\PSoC6/SensorBus.h **** * Function Name: SensorBus_SlaveGetAddress
 298:Generated_Source\PSoC6/SensorBus.h **** ****************************************************************************//**
 299:Generated_Source\PSoC6/SensorBus.h **** *
 300:Generated_Source\PSoC6/SensorBus.h **** * Invokes the Cy_SCB_I2C_SlaveGetAddress() PDL driver function.
 301:Generated_Source\PSoC6/SensorBus.h **** *
 302:Generated_Source\PSoC6/SensorBus.h **** *******************************************************************************/
 303:Generated_Source\PSoC6/SensorBus.h **** __STATIC_INLINE uint32_t SensorBus_SlaveGetAddress(void)
 304:Generated_Source\PSoC6/SensorBus.h **** {
 305:Generated_Source\PSoC6/SensorBus.h ****     return Cy_SCB_I2C_SlaveGetAddress(SensorBus_HW);
 306:Generated_Source\PSoC6/SensorBus.h **** }
 307:Generated_Source\PSoC6/SensorBus.h **** 
 308:Generated_Source\PSoC6/SensorBus.h **** 
 309:Generated_Source\PSoC6/SensorBus.h **** /*******************************************************************************
 310:Generated_Source\PSoC6/SensorBus.h **** * Function Name: SensorBus_SlaveSetAddressMask
 311:Generated_Source\PSoC6/SensorBus.h **** ****************************************************************************//**
 312:Generated_Source\PSoC6/SensorBus.h **** *
 313:Generated_Source\PSoC6/SensorBus.h **** * Invokes the Cy_SCB_I2C_SlaveSetAddressMask() PDL driver function.
 314:Generated_Source\PSoC6/SensorBus.h **** *
 315:Generated_Source\PSoC6/SensorBus.h **** *******************************************************************************/
 316:Generated_Source\PSoC6/SensorBus.h **** __STATIC_INLINE void SensorBus_SlaveSetAddressMask(uint8_t addrMask)
 317:Generated_Source\PSoC6/SensorBus.h **** {
 318:Generated_Source\PSoC6/SensorBus.h ****     Cy_SCB_I2C_SlaveSetAddressMask(SensorBus_HW, addrMask);
 319:Generated_Source\PSoC6/SensorBus.h **** }
 320:Generated_Source\PSoC6/SensorBus.h **** 
 321:Generated_Source\PSoC6/SensorBus.h **** 
 322:Generated_Source\PSoC6/SensorBus.h **** /*******************************************************************************
 323:Generated_Source\PSoC6/SensorBus.h **** * Function Name: SensorBus_SlaveGetAddressMask
 324:Generated_Source\PSoC6/SensorBus.h **** ****************************************************************************//**
 325:Generated_Source\PSoC6/SensorBus.h **** *
 326:Generated_Source\PSoC6/SensorBus.h **** * Invokes the Cy_SCB_I2C_SlaveGetAddressMask() PDL driver function.
 327:Generated_Source\PSoC6/SensorBus.h **** *
 328:Generated_Source\PSoC6/SensorBus.h **** *******************************************************************************/
 329:Generated_Source\PSoC6/SensorBus.h **** __STATIC_INLINE uint32_t SensorBus_SlaveGetAddressMask(void)
 330:Generated_Source\PSoC6/SensorBus.h **** {
 331:Generated_Source\PSoC6/SensorBus.h ****     return Cy_SCB_I2C_SlaveGetAddressMask(SensorBus_HW);
 332:Generated_Source\PSoC6/SensorBus.h **** }
 333:Generated_Source\PSoC6/SensorBus.h **** #endif /* (SensorBus_ENABLE_SLAVE) */
 334:Generated_Source\PSoC6/SensorBus.h **** 
 335:Generated_Source\PSoC6/SensorBus.h **** #if (SensorBus_ENABLE_MASTER)
 336:Generated_Source\PSoC6/SensorBus.h **** /*******************************************************************************
 337:Generated_Source\PSoC6/SensorBus.h **** * Function Name: SensorBus_MasterSetLowPhaseDutyCycle
 338:Generated_Source\PSoC6/SensorBus.h **** ****************************************************************************//**
 339:Generated_Source\PSoC6/SensorBus.h **** *
 340:Generated_Source\PSoC6/SensorBus.h **** * Invokes the Cy_SCB_I2C_MasterSetLowPhaseDutyCycle() PDL driver function.
 341:Generated_Source\PSoC6/SensorBus.h **** *
 342:Generated_Source\PSoC6/SensorBus.h **** *******************************************************************************/
ARM GAS  C:\Users\maxwe\AppData\Local\Temp\cchGHDkA.s 			page 16


 343:Generated_Source\PSoC6/SensorBus.h **** __STATIC_INLINE void SensorBus_MasterSetLowPhaseDutyCycle(uint32_t clockCycles)
 344:Generated_Source\PSoC6/SensorBus.h **** {
 345:Generated_Source\PSoC6/SensorBus.h ****     Cy_SCB_I2C_MasterSetLowPhaseDutyCycle(SensorBus_HW, clockCycles);
 346:Generated_Source\PSoC6/SensorBus.h **** }
 347:Generated_Source\PSoC6/SensorBus.h **** 
 348:Generated_Source\PSoC6/SensorBus.h **** 
 349:Generated_Source\PSoC6/SensorBus.h **** /*******************************************************************************
 350:Generated_Source\PSoC6/SensorBus.h **** * Function Name: SensorBus_MasterSetHighPhaseDutyCycle
 351:Generated_Source\PSoC6/SensorBus.h **** ****************************************************************************//**
 352:Generated_Source\PSoC6/SensorBus.h **** *
 353:Generated_Source\PSoC6/SensorBus.h **** * Invokes the Cy_SCB_I2C_MasterSetHighPhaseDutyCycle() PDL driver function.
 354:Generated_Source\PSoC6/SensorBus.h **** *
 355:Generated_Source\PSoC6/SensorBus.h **** *******************************************************************************/
 356:Generated_Source\PSoC6/SensorBus.h **** __STATIC_INLINE void SensorBus_MasterSetHighPhaseDutyCycle(uint32_t clockCycles)
 357:Generated_Source\PSoC6/SensorBus.h **** {
 358:Generated_Source\PSoC6/SensorBus.h ****     Cy_SCB_I2C_MasterSetHighPhaseDutyCycle(SensorBus_HW, clockCycles);
 359:Generated_Source\PSoC6/SensorBus.h **** }
 360:Generated_Source\PSoC6/SensorBus.h **** #endif /* (SensorBus_ENABLE_MASTER) */
 361:Generated_Source\PSoC6/SensorBus.h **** 
 362:Generated_Source\PSoC6/SensorBus.h **** 
 363:Generated_Source\PSoC6/SensorBus.h **** #if (SensorBus_ENABLE_SLAVE)
 364:Generated_Source\PSoC6/SensorBus.h **** /*******************************************************************************
 365:Generated_Source\PSoC6/SensorBus.h **** * Function Name: SensorBus_SlaveGetStatus
 366:Generated_Source\PSoC6/SensorBus.h **** ****************************************************************************//**
 367:Generated_Source\PSoC6/SensorBus.h **** *
 368:Generated_Source\PSoC6/SensorBus.h **** * Invokes the Cy_SCB_I2C_SlaveGetStatus() PDL driver function.
 369:Generated_Source\PSoC6/SensorBus.h **** *
 370:Generated_Source\PSoC6/SensorBus.h **** *******************************************************************************/
 371:Generated_Source\PSoC6/SensorBus.h **** __STATIC_INLINE uint32_t SensorBus_SlaveGetStatus(void)
 372:Generated_Source\PSoC6/SensorBus.h **** {
 373:Generated_Source\PSoC6/SensorBus.h ****     return Cy_SCB_I2C_SlaveGetStatus(SensorBus_HW, &SensorBus_context);
 374:Generated_Source\PSoC6/SensorBus.h **** }
 375:Generated_Source\PSoC6/SensorBus.h **** 
 376:Generated_Source\PSoC6/SensorBus.h **** 
 377:Generated_Source\PSoC6/SensorBus.h **** /*******************************************************************************
 378:Generated_Source\PSoC6/SensorBus.h **** * Function Name: SensorBus_SlaveConfigReadBuf
 379:Generated_Source\PSoC6/SensorBus.h **** ****************************************************************************//**
 380:Generated_Source\PSoC6/SensorBus.h **** *
 381:Generated_Source\PSoC6/SensorBus.h **** * Invokes the Cy_SCB_I2C_SlaveConfigReadBuf() PDL driver function.
 382:Generated_Source\PSoC6/SensorBus.h **** *
 383:Generated_Source\PSoC6/SensorBus.h **** *******************************************************************************/
 384:Generated_Source\PSoC6/SensorBus.h **** __STATIC_INLINE void SensorBus_SlaveConfigReadBuf(uint8_t *buffer, uint32_t size)
 385:Generated_Source\PSoC6/SensorBus.h **** {
 386:Generated_Source\PSoC6/SensorBus.h ****     Cy_SCB_I2C_SlaveConfigReadBuf(SensorBus_HW, buffer, size, &SensorBus_context);
 387:Generated_Source\PSoC6/SensorBus.h **** }
 388:Generated_Source\PSoC6/SensorBus.h **** 
 389:Generated_Source\PSoC6/SensorBus.h **** 
 390:Generated_Source\PSoC6/SensorBus.h **** /*******************************************************************************
 391:Generated_Source\PSoC6/SensorBus.h **** * Function Name: SensorBus_SlaveAbortRead
 392:Generated_Source\PSoC6/SensorBus.h **** ****************************************************************************//**
 393:Generated_Source\PSoC6/SensorBus.h **** *
 394:Generated_Source\PSoC6/SensorBus.h **** * Invokes the Cy_SCB_I2C_SlaveAbortRead() PDL driver function.
 395:Generated_Source\PSoC6/SensorBus.h **** *
 396:Generated_Source\PSoC6/SensorBus.h **** *******************************************************************************/
 397:Generated_Source\PSoC6/SensorBus.h **** __STATIC_INLINE void SensorBus_SlaveAbortRead(void)
 398:Generated_Source\PSoC6/SensorBus.h **** {
 399:Generated_Source\PSoC6/SensorBus.h ****     Cy_SCB_I2C_SlaveAbortRead(SensorBus_HW, &SensorBus_context);
ARM GAS  C:\Users\maxwe\AppData\Local\Temp\cchGHDkA.s 			page 17


 400:Generated_Source\PSoC6/SensorBus.h **** }
 401:Generated_Source\PSoC6/SensorBus.h **** 
 402:Generated_Source\PSoC6/SensorBus.h **** 
 403:Generated_Source\PSoC6/SensorBus.h **** /*******************************************************************************
 404:Generated_Source\PSoC6/SensorBus.h **** * Function Name: SensorBus_SlaveGetReadTransferCount
 405:Generated_Source\PSoC6/SensorBus.h **** ****************************************************************************//**
 406:Generated_Source\PSoC6/SensorBus.h **** *
 407:Generated_Source\PSoC6/SensorBus.h **** * Invokes the Cy_SCB_I2C_SlaveGetReadTransferCount() PDL driver function.
 408:Generated_Source\PSoC6/SensorBus.h **** *
 409:Generated_Source\PSoC6/SensorBus.h **** *******************************************************************************/
 410:Generated_Source\PSoC6/SensorBus.h **** __STATIC_INLINE uint32_t SensorBus_SlaveGetReadTransferCount(void)
 411:Generated_Source\PSoC6/SensorBus.h **** {
 412:Generated_Source\PSoC6/SensorBus.h ****     return Cy_SCB_I2C_SlaveGetReadTransferCount(SensorBus_HW, &SensorBus_context);
 413:Generated_Source\PSoC6/SensorBus.h **** }
 414:Generated_Source\PSoC6/SensorBus.h **** 
 415:Generated_Source\PSoC6/SensorBus.h **** 
 416:Generated_Source\PSoC6/SensorBus.h **** /*******************************************************************************
 417:Generated_Source\PSoC6/SensorBus.h **** * Function Name: SensorBus_SlaveClearReadStatus
 418:Generated_Source\PSoC6/SensorBus.h **** ****************************************************************************//**
 419:Generated_Source\PSoC6/SensorBus.h **** *
 420:Generated_Source\PSoC6/SensorBus.h **** * Invokes the Cy_SCB_I2C_SlaveClearReadStatus() PDL driver function.
 421:Generated_Source\PSoC6/SensorBus.h **** *
 422:Generated_Source\PSoC6/SensorBus.h **** *******************************************************************************/
 423:Generated_Source\PSoC6/SensorBus.h **** __STATIC_INLINE uint32_t SensorBus_SlaveClearReadStatus(void)
 424:Generated_Source\PSoC6/SensorBus.h **** {
 425:Generated_Source\PSoC6/SensorBus.h ****     return Cy_SCB_I2C_SlaveClearReadStatus(SensorBus_HW, &SensorBus_context);
 426:Generated_Source\PSoC6/SensorBus.h **** }
 427:Generated_Source\PSoC6/SensorBus.h **** 
 428:Generated_Source\PSoC6/SensorBus.h **** 
 429:Generated_Source\PSoC6/SensorBus.h **** /*******************************************************************************
 430:Generated_Source\PSoC6/SensorBus.h **** * Function Name: SensorBus_SlaveConfigWriteBuf
 431:Generated_Source\PSoC6/SensorBus.h **** ****************************************************************************//**
 432:Generated_Source\PSoC6/SensorBus.h **** *
 433:Generated_Source\PSoC6/SensorBus.h **** * Invokes the Cy_SCB_I2C_SlaveConfigWriteBuf() PDL driver function.
 434:Generated_Source\PSoC6/SensorBus.h **** *
 435:Generated_Source\PSoC6/SensorBus.h **** *******************************************************************************/
 436:Generated_Source\PSoC6/SensorBus.h **** __STATIC_INLINE void SensorBus_SlaveConfigWriteBuf(uint8_t *buffer, uint32_t size)
 437:Generated_Source\PSoC6/SensorBus.h **** {
 438:Generated_Source\PSoC6/SensorBus.h ****     Cy_SCB_I2C_SlaveConfigWriteBuf(SensorBus_HW, buffer, size, &SensorBus_context);
 439:Generated_Source\PSoC6/SensorBus.h **** }
 440:Generated_Source\PSoC6/SensorBus.h **** 
 441:Generated_Source\PSoC6/SensorBus.h **** 
 442:Generated_Source\PSoC6/SensorBus.h **** /*******************************************************************************
 443:Generated_Source\PSoC6/SensorBus.h **** * Function Name: SensorBus_SlaveAbortWrite
 444:Generated_Source\PSoC6/SensorBus.h **** ****************************************************************************//**
 445:Generated_Source\PSoC6/SensorBus.h **** *
 446:Generated_Source\PSoC6/SensorBus.h **** * Invokes the Cy_SCB_I2C_SlaveAbortWrite() PDL driver function.
 447:Generated_Source\PSoC6/SensorBus.h **** *
 448:Generated_Source\PSoC6/SensorBus.h **** *******************************************************************************/
 449:Generated_Source\PSoC6/SensorBus.h **** __STATIC_INLINE void SensorBus_SlaveAbortWrite(void)
 450:Generated_Source\PSoC6/SensorBus.h **** {
 451:Generated_Source\PSoC6/SensorBus.h ****     Cy_SCB_I2C_SlaveAbortWrite(SensorBus_HW, &SensorBus_context);
 452:Generated_Source\PSoC6/SensorBus.h **** }
 453:Generated_Source\PSoC6/SensorBus.h **** 
 454:Generated_Source\PSoC6/SensorBus.h **** 
 455:Generated_Source\PSoC6/SensorBus.h **** /*******************************************************************************
 456:Generated_Source\PSoC6/SensorBus.h **** * Function Name: SensorBus_SlaveGetWriteTransferCount
ARM GAS  C:\Users\maxwe\AppData\Local\Temp\cchGHDkA.s 			page 18


 457:Generated_Source\PSoC6/SensorBus.h **** ****************************************************************************//**
 458:Generated_Source\PSoC6/SensorBus.h **** *
 459:Generated_Source\PSoC6/SensorBus.h **** * Invokes the Cy_SCB_I2C_SlaveGetWriteTransferCount() PDL driver function.
 460:Generated_Source\PSoC6/SensorBus.h **** *
 461:Generated_Source\PSoC6/SensorBus.h **** *******************************************************************************/
 462:Generated_Source\PSoC6/SensorBus.h **** __STATIC_INLINE uint32_t SensorBus_SlaveGetWriteTransferCount(void)
 463:Generated_Source\PSoC6/SensorBus.h **** {
 464:Generated_Source\PSoC6/SensorBus.h ****     return Cy_SCB_I2C_SlaveGetWriteTransferCount(SensorBus_HW, &SensorBus_context);
 465:Generated_Source\PSoC6/SensorBus.h **** }
 466:Generated_Source\PSoC6/SensorBus.h **** 
 467:Generated_Source\PSoC6/SensorBus.h **** 
 468:Generated_Source\PSoC6/SensorBus.h **** /*******************************************************************************
 469:Generated_Source\PSoC6/SensorBus.h **** * Function Name: SensorBus_SlaveClearWriteStatus
 470:Generated_Source\PSoC6/SensorBus.h **** ****************************************************************************//**
 471:Generated_Source\PSoC6/SensorBus.h **** *
 472:Generated_Source\PSoC6/SensorBus.h **** * Invokes the Cy_SCB_I2C_SlaveClearWriteStatus() PDL driver function.
 473:Generated_Source\PSoC6/SensorBus.h **** *
 474:Generated_Source\PSoC6/SensorBus.h **** *******************************************************************************/
 475:Generated_Source\PSoC6/SensorBus.h **** __STATIC_INLINE uint32_t SensorBus_SlaveClearWriteStatus(void)
 476:Generated_Source\PSoC6/SensorBus.h **** {
 477:Generated_Source\PSoC6/SensorBus.h ****     return Cy_SCB_I2C_SlaveClearWriteStatus(SensorBus_HW, &SensorBus_context);
 478:Generated_Source\PSoC6/SensorBus.h **** }
 479:Generated_Source\PSoC6/SensorBus.h **** #endif /* (SensorBus_ENABLE_SLAVE) */
 480:Generated_Source\PSoC6/SensorBus.h **** 
 481:Generated_Source\PSoC6/SensorBus.h **** 
 482:Generated_Source\PSoC6/SensorBus.h **** #if (SensorBus_ENABLE_MASTER)
 483:Generated_Source\PSoC6/SensorBus.h **** /*******************************************************************************
 484:Generated_Source\PSoC6/SensorBus.h **** * Function Name: SensorBus_MasterGetStatus
 485:Generated_Source\PSoC6/SensorBus.h **** ****************************************************************************//**
 486:Generated_Source\PSoC6/SensorBus.h **** *
 487:Generated_Source\PSoC6/SensorBus.h **** * Invokes the Cy_SCB_I2C_MasterGetStatus() PDL driver function.
 488:Generated_Source\PSoC6/SensorBus.h **** *
 489:Generated_Source\PSoC6/SensorBus.h **** *******************************************************************************/
 490:Generated_Source\PSoC6/SensorBus.h **** __STATIC_INLINE uint32_t SensorBus_MasterGetStatus(void)
 491:Generated_Source\PSoC6/SensorBus.h **** {
 492:Generated_Source\PSoC6/SensorBus.h ****     return Cy_SCB_I2C_MasterGetStatus(SensorBus_HW, &SensorBus_context);
  40              		.loc 2 492 0 discriminator 1
  41 0002 0549     		ldr	r1, .L4
  42 0004 0548     		ldr	r0, .L4+4
  43 0006 FFF7FEFF 		bl	Cy_SCB_I2C_MasterGetStatus
  44              	.LVL0:
  45              	.LBE63:
  46              	.LBE62:
 475:main_cm4.c    ****     int busy_counter = 0;
 476:main_cm4.c    ****     
 477:main_cm4.c    ****  while(0 != (CY_SCB_I2C_MASTER_BUSY & SensorBus_MasterGetStatus())){}
  47              		.loc 1 477 0 discriminator 1
  48 000a 10F4803F 		tst	r0, #65536
  49 000e F8D1     		bne	.L2
 478:main_cm4.c    ****     {
 479:main_cm4.c    ****        /*
 480:main_cm4.c    ****         busy_counter++;
 481:main_cm4.c    ****         if (busy_counter == 10)
 482:main_cm4.c    ****         {
 483:main_cm4.c    ****             Cy_GPIO_Write(SDA_PORT, SDA_NUM, 1);
 484:main_cm4.c    ****             
 485:main_cm4.c    ****             for(int i=0; i<=9; i++)
ARM GAS  C:\Users\maxwe\AppData\Local\Temp\cchGHDkA.s 			page 19


 486:main_cm4.c    ****             {
 487:main_cm4.c    ****                 Cy_GPIO_Write(SCL_PORT, SCL_NUM, 1);
 488:main_cm4.c    ****                 CyDelay(2);
 489:main_cm4.c    ****                 Cy_GPIO_Write(SCL_PORT, SCL_NUM, 0);
 490:main_cm4.c    ****                 CyDelay(2);
 491:main_cm4.c    ****             }
 492:main_cm4.c    **** 
 493:main_cm4.c    ****             Cy_GPIO_Write(SDA_PORT, SDA_NUM, 0);
 494:main_cm4.c    ****             CyDelay(5);
 495:main_cm4.c    ****             Cy_GPIO_Write(SCL_PORT, SCL_NUM, 1);
 496:main_cm4.c    ****             CyDelay(2);
 497:main_cm4.c    ****             Cy_GPIO_Write(SDA_PORT, SDA_NUM, 1);
 498:main_cm4.c    ****             CyDelay(2);
 499:main_cm4.c    ****             busy_counter = 0;
 500:main_cm4.c    ****         }
 501:main_cm4.c    ****         */
 502:main_cm4.c    ****         CyDelayUs(1);
  50              		.loc 1 502 0
  51 0010 0120     		movs	r0, #1
  52 0012 FFF7FEFF 		bl	Cy_SysLib_DelayUs
  53              	.LVL1:
  54 0016 08BD     		pop	{r3, pc}
  55              	.L5:
  56              		.align	2
  57              	.L4:
  58 0018 00000000 		.word	SensorBus_context
  59 001c 00006740 		.word	1080492032
  60              		.cfi_endproc
  61              	.LFE521:
  62              		.size	WaitForOperation, .-WaitForOperation
  63              		.section	.text.WriteRegister,"ax",%progbits
  64              		.align	2
  65              		.thumb
  66              		.thumb_func
  67              		.type	WriteRegister, %function
  68              	WriteRegister:
  69              	.LFB522:
 503:main_cm4.c    ****     }
 504:main_cm4.c    **** 
 505:main_cm4.c    **** 
 506:main_cm4.c    **** 
 507:main_cm4.c    **** }
 508:main_cm4.c    **** 
 509:main_cm4.c    **** 
 510:main_cm4.c    **** 
 511:main_cm4.c    **** 
 512:main_cm4.c    **** 
 513:main_cm4.c    **** static void WriteRegister(uint8 reg_addr, uint16 data)
 514:main_cm4.c    **** {
  70              		.loc 1 514 0
  71              		.cfi_startproc
  72              		@ args = 0, pretend = 0, frame = 0
  73              		@ frame_needed = 0, uses_anonymous_args = 0
  74              	.LVL2:
  75 0000 08B5     		push	{r3, lr}
  76              		.cfi_def_cfa_offset 8
  77              		.cfi_offset 3, -8
ARM GAS  C:\Users\maxwe\AppData\Local\Temp\cchGHDkA.s 			page 20


  78              		.cfi_offset 14, -4
 515:main_cm4.c    ****     wbuff[0] = reg_addr;
  79              		.loc 1 515 0
  80 0002 084B     		ldr	r3, .L8
  81 0004 1870     		strb	r0, [r3]
 516:main_cm4.c    ****     wbuff[1] = data;
  82              		.loc 1 516 0
  83 0006 5970     		strb	r1, [r3, #1]
 517:main_cm4.c    ****     
 518:main_cm4.c    ****     register_setting.buffer = wbuff;
  84              		.loc 1 518 0
  85 0008 DB60     		str	r3, [r3, #12]
 519:main_cm4.c    ****     register_setting.bufferSize = 2;
  86              		.loc 1 519 0
  87 000a 0222     		movs	r2, #2
  88 000c 1A61     		str	r2, [r3, #16]
 520:main_cm4.c    ****     register_setting.xferPending = false;
  89              		.loc 1 520 0
  90 000e 0022     		movs	r2, #0
  91 0010 1A75     		strb	r2, [r3, #20]
  92              	.LVL3:
  93              	.LBB64:
  94              	.LBB65:
 493:Generated_Source\PSoC6/SensorBus.h **** }
 494:Generated_Source\PSoC6/SensorBus.h **** 
 495:Generated_Source\PSoC6/SensorBus.h **** 
 496:Generated_Source\PSoC6/SensorBus.h **** /*******************************************************************************
 497:Generated_Source\PSoC6/SensorBus.h **** * Function Name: SensorBus_MasterRead
 498:Generated_Source\PSoC6/SensorBus.h **** ****************************************************************************//**
 499:Generated_Source\PSoC6/SensorBus.h **** *
 500:Generated_Source\PSoC6/SensorBus.h **** * Invokes the Cy_SCB_I2C_MasterRead() PDL driver function.
 501:Generated_Source\PSoC6/SensorBus.h **** *
 502:Generated_Source\PSoC6/SensorBus.h **** *******************************************************************************/
 503:Generated_Source\PSoC6/SensorBus.h **** __STATIC_INLINE cy_en_scb_i2c_status_t SensorBus_MasterRead(cy_stc_scb_i2c_master_xfer_config_t *xf
 504:Generated_Source\PSoC6/SensorBus.h **** {
 505:Generated_Source\PSoC6/SensorBus.h ****     return Cy_SCB_I2C_MasterRead(SensorBus_HW, xferConfig, &SensorBus_context);
 506:Generated_Source\PSoC6/SensorBus.h **** }
 507:Generated_Source\PSoC6/SensorBus.h **** 
 508:Generated_Source\PSoC6/SensorBus.h **** 
 509:Generated_Source\PSoC6/SensorBus.h **** /*******************************************************************************
 510:Generated_Source\PSoC6/SensorBus.h **** * Function Name: SensorBus_MasterAbortRead
 511:Generated_Source\PSoC6/SensorBus.h **** ****************************************************************************//**
 512:Generated_Source\PSoC6/SensorBus.h **** *
 513:Generated_Source\PSoC6/SensorBus.h **** * Invokes the Cy_SCB_I2C_MasterAbortRead() PDL driver function.
 514:Generated_Source\PSoC6/SensorBus.h **** *
 515:Generated_Source\PSoC6/SensorBus.h **** ******************************************************************************/
 516:Generated_Source\PSoC6/SensorBus.h **** __STATIC_INLINE void SensorBus_MasterAbortRead(void)
 517:Generated_Source\PSoC6/SensorBus.h **** {
 518:Generated_Source\PSoC6/SensorBus.h ****     Cy_SCB_I2C_MasterAbortRead(SensorBus_HW, &SensorBus_context);
 519:Generated_Source\PSoC6/SensorBus.h **** }
 520:Generated_Source\PSoC6/SensorBus.h **** 
 521:Generated_Source\PSoC6/SensorBus.h **** 
 522:Generated_Source\PSoC6/SensorBus.h **** /*******************************************************************************
 523:Generated_Source\PSoC6/SensorBus.h **** * Function Name: SensorBus_MasterWrite
 524:Generated_Source\PSoC6/SensorBus.h **** ****************************************************************************//**
 525:Generated_Source\PSoC6/SensorBus.h **** *
 526:Generated_Source\PSoC6/SensorBus.h **** * Invokes the Cy_SCB_I2C_MasterWrite() PDL driver function.
ARM GAS  C:\Users\maxwe\AppData\Local\Temp\cchGHDkA.s 			page 21


 527:Generated_Source\PSoC6/SensorBus.h **** *
 528:Generated_Source\PSoC6/SensorBus.h **** *******************************************************************************/
 529:Generated_Source\PSoC6/SensorBus.h **** __STATIC_INLINE cy_en_scb_i2c_status_t SensorBus_MasterWrite(cy_stc_scb_i2c_master_xfer_config_t *x
 530:Generated_Source\PSoC6/SensorBus.h **** {
 531:Generated_Source\PSoC6/SensorBus.h ****     return Cy_SCB_I2C_MasterWrite(SensorBus_HW, xferConfig, &SensorBus_context);
  95              		.loc 2 531 0
  96 0012 054A     		ldr	r2, .L8+4
  97 0014 03F10801 		add	r1, r3, #8
  98              	.LVL4:
  99 0018 0448     		ldr	r0, .L8+8
 100              	.LVL5:
 101 001a FFF7FEFF 		bl	Cy_SCB_I2C_MasterWrite
 102              	.LVL6:
 103              	.LBE65:
 104              	.LBE64:
 521:main_cm4.c    ****     
 522:main_cm4.c    ****     SensorBus_MasterWrite(&register_setting);
 523:main_cm4.c    ****     WaitForOperation(); 
 105              		.loc 1 523 0
 106 001e FFF7FEFF 		bl	WaitForOperation
 107              	.LVL7:
 108 0022 08BD     		pop	{r3, pc}
 109              	.L9:
 110              		.align	2
 111              	.L8:
 112 0024 00000000 		.word	.LANCHOR0
 113 0028 00000000 		.word	SensorBus_context
 114 002c 00006740 		.word	1080492032
 115              		.cfi_endproc
 116              	.LFE522:
 117              		.size	WriteRegister, .-WriteRegister
 118              		.section	.text.ReadRegister,"ax",%progbits
 119              		.align	2
 120              		.thumb
 121              		.thumb_func
 122              		.type	ReadRegister, %function
 123              	ReadRegister:
 124              	.LFB523:
 524:main_cm4.c    **** }
 525:main_cm4.c    **** 
 526:main_cm4.c    **** 
 527:main_cm4.c    **** 
 528:main_cm4.c    **** 
 529:main_cm4.c    **** 
 530:main_cm4.c    **** static uint8 ReadRegister(uint8 reg_addr, int read_len)
 531:main_cm4.c    **** {
 125              		.loc 1 531 0
 126              		.cfi_startproc
 127              		@ args = 0, pretend = 0, frame = 0
 128              		@ frame_needed = 0, uses_anonymous_args = 0
 129              	.LVL8:
 130 0000 2DE9F041 		push	{r4, r5, r6, r7, r8, lr}
 131              		.cfi_def_cfa_offset 24
 132              		.cfi_offset 4, -24
 133              		.cfi_offset 5, -20
 134              		.cfi_offset 6, -16
 135              		.cfi_offset 7, -12
ARM GAS  C:\Users\maxwe\AppData\Local\Temp\cchGHDkA.s 			page 22


 136              		.cfi_offset 8, -8
 137              		.cfi_offset 14, -4
 138 0004 8846     		mov	r8, r1
 532:main_cm4.c    ****     wbuff[0] = reg_addr;
 139              		.loc 1 532 0
 140 0006 114C     		ldr	r4, .L12
 141 0008 2070     		strb	r0, [r4]
 533:main_cm4.c    ****     
 534:main_cm4.c    ****     register_setting.buffer = wbuff;
 142              		.loc 1 534 0
 143 000a E460     		str	r4, [r4, #12]
 535:main_cm4.c    ****     register_setting.bufferSize = 1;
 144              		.loc 1 535 0
 145 000c 0123     		movs	r3, #1
 146 000e 2361     		str	r3, [r4, #16]
 536:main_cm4.c    ****     register_setting.xferPending = true;
 147              		.loc 1 536 0
 148 0010 2375     		strb	r3, [r4, #20]
 149              	.LVL9:
 150              	.LBB66:
 151              	.LBB67:
 152              		.loc 2 531 0
 153 0012 0F4F     		ldr	r7, .L12+4
 154 0014 04F10806 		add	r6, r4, #8
 155 0018 0E4D     		ldr	r5, .L12+8
 156 001a 3A46     		mov	r2, r7
 157 001c 3146     		mov	r1, r6
 158              	.LVL10:
 159 001e 2846     		mov	r0, r5
 160              	.LVL11:
 161 0020 FFF7FEFF 		bl	Cy_SCB_I2C_MasterWrite
 162              	.LVL12:
 163              	.LBE67:
 164              	.LBE66:
 537:main_cm4.c    ****            
 538:main_cm4.c    ****     
 539:main_cm4.c    ****     SensorBus_MasterWrite(&register_setting);
 540:main_cm4.c    ****     WaitForOperation();
 165              		.loc 1 540 0
 166 0024 FFF7FEFF 		bl	WaitForOperation
 167              	.LVL13:
 541:main_cm4.c    ****     
 542:main_cm4.c    ****     register_setting.buffer = rbuff;
 168              		.loc 1 542 0
 169 0028 04F11803 		add	r3, r4, #24
 170 002c E360     		str	r3, [r4, #12]
 543:main_cm4.c    ****     register_setting.bufferSize = read_len;
 171              		.loc 1 543 0
 172 002e C4F81080 		str	r8, [r4, #16]
 544:main_cm4.c    ****     register_setting.xferPending = false;
 173              		.loc 1 544 0
 174 0032 0023     		movs	r3, #0
 175 0034 2375     		strb	r3, [r4, #20]
 176              	.LVL14:
 177              	.LBB68:
 178              	.LBB69:
 505:Generated_Source\PSoC6/SensorBus.h **** }
ARM GAS  C:\Users\maxwe\AppData\Local\Temp\cchGHDkA.s 			page 23


 179              		.loc 2 505 0
 180 0036 3A46     		mov	r2, r7
 181 0038 3146     		mov	r1, r6
 182 003a 2846     		mov	r0, r5
 183 003c FFF7FEFF 		bl	Cy_SCB_I2C_MasterRead
 184              	.LVL15:
 185              	.LBE69:
 186              	.LBE68:
 545:main_cm4.c    ****     
 546:main_cm4.c    ****     SensorBus_MasterRead(&register_setting);
 547:main_cm4.c    ****     WaitForOperation();
 187              		.loc 1 547 0
 188 0040 FFF7FEFF 		bl	WaitForOperation
 189              	.LVL16:
 548:main_cm4.c    ****     //CyDelay(50);
 549:main_cm4.c    ****     
 550:main_cm4.c    ****     return rbuff[0];   
 551:main_cm4.c    **** }
 190              		.loc 1 551 0
 191 0044 207E     		ldrb	r0, [r4, #24]	@ zero_extendqisi2
 192 0046 BDE8F081 		pop	{r4, r5, r6, r7, r8, pc}
 193              	.LVL17:
 194              	.L13:
 195 004a 00BF     		.align	2
 196              	.L12:
 197 004c 00000000 		.word	.LANCHOR0
 198 0050 00000000 		.word	SensorBus_context
 199 0054 00006740 		.word	1080492032
 200              		.cfi_endproc
 201              	.LFE523:
 202              		.size	ReadRegister, .-ReadRegister
 203              		.section	.text.go_to_top_line,"ax",%progbits
 204              		.align	2
 205              		.global	go_to_top_line
 206              		.thumb
 207              		.thumb_func
 208              		.type	go_to_top_line, %function
 209              	go_to_top_line:
 210              	.LFB511:
 351:main_cm4.c    ****     int line = 1, col = 0;
 211              		.loc 1 351 0
 212              		.cfi_startproc
 213              		@ args = 0, pretend = 0, frame = 0
 214              		@ frame_needed = 0, uses_anonymous_args = 0
 215 0000 08B5     		push	{r3, lr}
 216              		.cfi_def_cfa_offset 8
 217              		.cfi_offset 3, -8
 218              		.cfi_offset 14, -4
 219              	.LVL18:
 368:main_cm4.c    ****     
 220              		.loc 1 368 0
 221 0002 0020     		movs	r0, #0
 222 0004 FFF7FEFF 		bl	CLCD_SetDDRAMAddr
 223              	.LVL19:
 224 0008 08BD     		pop	{r3, pc}
 225              		.cfi_endproc
 226              	.LFE511:
ARM GAS  C:\Users\maxwe\AppData\Local\Temp\cchGHDkA.s 			page 24


 227              		.size	go_to_top_line, .-go_to_top_line
 228 000a 00BF     		.section	.text.go_to_bottom_line,"ax",%progbits
 229              		.align	2
 230              		.global	go_to_bottom_line
 231              		.thumb
 232              		.thumb_func
 233              		.type	go_to_bottom_line, %function
 234              	go_to_bottom_line:
 235              	.LFB512:
 378:main_cm4.c    ****     int line = 2, col = 0;
 236              		.loc 1 378 0
 237              		.cfi_startproc
 238              		@ args = 0, pretend = 0, frame = 0
 239              		@ frame_needed = 0, uses_anonymous_args = 0
 240 0000 08B5     		push	{r3, lr}
 241              		.cfi_def_cfa_offset 8
 242              		.cfi_offset 3, -8
 243              		.cfi_offset 14, -4
 244              	.LVL20:
 395:main_cm4.c    **** }
 245              		.loc 1 395 0
 246 0002 4020     		movs	r0, #64
 247 0004 FFF7FEFF 		bl	CLCD_SetDDRAMAddr
 248              	.LVL21:
 249 0008 08BD     		pop	{r3, pc}
 250              		.cfi_endproc
 251              	.LFE512:
 252              		.size	go_to_bottom_line, .-go_to_bottom_line
 253 000a 00BF     		.section	.text.do_clear,"ax",%progbits
 254              		.align	2
 255              		.global	do_clear
 256              		.thumb
 257              		.thumb_func
 258              		.type	do_clear, %function
 259              	do_clear:
 260              	.LFB513:
 401:main_cm4.c    ****     CLCD_Clear() ;
 261              		.loc 1 401 0
 262              		.cfi_startproc
 263              		@ args = 0, pretend = 0, frame = 0
 264              		@ frame_needed = 0, uses_anonymous_args = 0
 265 0000 08B5     		push	{r3, lr}
 266              		.cfi_def_cfa_offset 8
 267              		.cfi_offset 3, -8
 268              		.cfi_offset 14, -4
 402:main_cm4.c    **** }
 269              		.loc 1 402 0
 270 0002 FFF7FEFF 		bl	CLCD_Clear
 271              	.LVL22:
 272 0006 08BD     		pop	{r3, pc}
 273              		.cfi_endproc
 274              	.LFE513:
 275              		.size	do_clear, .-do_clear
 276              		.section	.text.print_two_sentence,"ax",%progbits
 277              		.align	2
 278              		.global	print_two_sentence
 279              		.thumb
ARM GAS  C:\Users\maxwe\AppData\Local\Temp\cchGHDkA.s 			page 25


 280              		.thumb_func
 281              		.type	print_two_sentence, %function
 282              	print_two_sentence:
 283              	.LFB510:
 330:main_cm4.c    ****     CLCD_Init();
 284              		.loc 1 330 0
 285              		.cfi_startproc
 286              		@ args = 0, pretend = 0, frame = 0
 287              		@ frame_needed = 0, uses_anonymous_args = 0
 288              	.LVL23:
 289 0000 38B5     		push	{r3, r4, r5, lr}
 290              		.cfi_def_cfa_offset 16
 291              		.cfi_offset 3, -16
 292              		.cfi_offset 4, -12
 293              		.cfi_offset 5, -8
 294              		.cfi_offset 14, -4
 295 0002 0546     		mov	r5, r0
 296 0004 0C46     		mov	r4, r1
 331:main_cm4.c    ****     CyDelay(50);
 297              		.loc 1 331 0
 298 0006 FFF7FEFF 		bl	CLCD_Init
 299              	.LVL24:
 332:main_cm4.c    ****     do_clear();
 300              		.loc 1 332 0
 301 000a 3220     		movs	r0, #50
 302 000c FFF7FEFF 		bl	Cy_SysLib_Delay
 303              	.LVL25:
 333:main_cm4.c    ****     go_to_top_line() ;
 304              		.loc 1 333 0
 305 0010 FFF7FEFF 		bl	do_clear
 306              	.LVL26:
 334:main_cm4.c    ****     CLCD_PutString(str_one) ;
 307              		.loc 1 334 0
 308 0014 FFF7FEFF 		bl	go_to_top_line
 309              	.LVL27:
 335:main_cm4.c    ****     go_to_bottom_line();
 310              		.loc 1 335 0
 311 0018 2846     		mov	r0, r5
 312 001a FFF7FEFF 		bl	CLCD_PutString
 313              	.LVL28:
 336:main_cm4.c    ****     CLCD_PutString(str_two);
 314              		.loc 1 336 0
 315 001e FFF7FEFF 		bl	go_to_bottom_line
 316              	.LVL29:
 337:main_cm4.c    ****     CyDelay(50);
 317              		.loc 1 337 0
 318 0022 2046     		mov	r0, r4
 319 0024 FFF7FEFF 		bl	CLCD_PutString
 320              	.LVL30:
 338:main_cm4.c    **** }
 321              		.loc 1 338 0
 322 0028 3220     		movs	r0, #50
 323 002a FFF7FEFF 		bl	Cy_SysLib_Delay
 324              	.LVL31:
 325 002e 38BD     		pop	{r3, r4, r5, pc}
 326              		.cfi_endproc
 327              	.LFE510:
ARM GAS  C:\Users\maxwe\AppData\Local\Temp\cchGHDkA.s 			page 26


 328              		.size	print_two_sentence, .-print_two_sentence
 329              		.global	__aeabi_f2d
 330              		.global	__aeabi_dadd
 331              		.global	__aeabi_ddiv
 332              		.global	__aeabi_dmul
 333              		.global	__aeabi_d2f
 334              		.section	.text.main,"ax",%progbits
 335              		.align	2
 336              		.global	main
 337              		.thumb
 338              		.thumb_func
 339              		.type	main, %function
 340              	main:
 341              	.LFB509:
  95:main_cm4.c    ****     __enable_irq(); /* Enable global interrupts. */
 342              		.loc 1 95 0
 343              		.cfi_startproc
 344              		@ args = 0, pretend = 0, frame = 0
 345              		@ frame_needed = 0, uses_anonymous_args = 0
 346 0000 2DE9F041 		push	{r4, r5, r6, r7, r8, lr}
 347              		.cfi_def_cfa_offset 24
 348              		.cfi_offset 4, -24
 349              		.cfi_offset 5, -20
 350              		.cfi_offset 6, -16
 351              		.cfi_offset 7, -12
 352              		.cfi_offset 8, -8
 353              		.cfi_offset 14, -4
 354              	.LBB70:
 355              	.LBB71:
 356              		.file 3 "Generated_Source\\PSoC6\\pdl\\cmsis/include/cmsis_gcc.h"
   1:Generated_Source\PSoC6\pdl\cmsis/include/cmsis_gcc.h **** /**************************************************************************//**
   2:Generated_Source\PSoC6\pdl\cmsis/include/cmsis_gcc.h ****  * @file     cmsis_gcc.h
   3:Generated_Source\PSoC6\pdl\cmsis/include/cmsis_gcc.h ****  * @brief    CMSIS compiler GCC header file
   4:Generated_Source\PSoC6\pdl\cmsis/include/cmsis_gcc.h ****  * @version  V5.0.3
   5:Generated_Source\PSoC6\pdl\cmsis/include/cmsis_gcc.h ****  * @date     16. January 2018
   6:Generated_Source\PSoC6\pdl\cmsis/include/cmsis_gcc.h ****  ******************************************************************************/
   7:Generated_Source\PSoC6\pdl\cmsis/include/cmsis_gcc.h **** /*
   8:Generated_Source\PSoC6\pdl\cmsis/include/cmsis_gcc.h ****  * Copyright (c) 2009-2017 ARM Limited. All rights reserved.
   9:Generated_Source\PSoC6\pdl\cmsis/include/cmsis_gcc.h ****  *
  10:Generated_Source\PSoC6\pdl\cmsis/include/cmsis_gcc.h ****  * SPDX-License-Identifier: Apache-2.0
  11:Generated_Source\PSoC6\pdl\cmsis/include/cmsis_gcc.h ****  *
  12:Generated_Source\PSoC6\pdl\cmsis/include/cmsis_gcc.h ****  * Licensed under the Apache License, Version 2.0 (the License); you may
  13:Generated_Source\PSoC6\pdl\cmsis/include/cmsis_gcc.h ****  * not use this file except in compliance with the License.
  14:Generated_Source\PSoC6\pdl\cmsis/include/cmsis_gcc.h ****  * You may obtain a copy of the License at
  15:Generated_Source\PSoC6\pdl\cmsis/include/cmsis_gcc.h ****  *
  16:Generated_Source\PSoC6\pdl\cmsis/include/cmsis_gcc.h ****  * www.apache.org/licenses/LICENSE-2.0
  17:Generated_Source\PSoC6\pdl\cmsis/include/cmsis_gcc.h ****  *
  18:Generated_Source\PSoC6\pdl\cmsis/include/cmsis_gcc.h ****  * Unless required by applicable law or agreed to in writing, software
  19:Generated_Source\PSoC6\pdl\cmsis/include/cmsis_gcc.h ****  * distributed under the License is distributed on an AS IS BASIS, WITHOUT
  20:Generated_Source\PSoC6\pdl\cmsis/include/cmsis_gcc.h ****  * WARRANTIES OR CONDITIONS OF ANY KIND, either express or implied.
  21:Generated_Source\PSoC6\pdl\cmsis/include/cmsis_gcc.h ****  * See the License for the specific language governing permissions and
  22:Generated_Source\PSoC6\pdl\cmsis/include/cmsis_gcc.h ****  * limitations under the License.
  23:Generated_Source\PSoC6\pdl\cmsis/include/cmsis_gcc.h ****  */
  24:Generated_Source\PSoC6\pdl\cmsis/include/cmsis_gcc.h **** 
  25:Generated_Source\PSoC6\pdl\cmsis/include/cmsis_gcc.h **** #ifndef __CMSIS_GCC_H
  26:Generated_Source\PSoC6\pdl\cmsis/include/cmsis_gcc.h **** #define __CMSIS_GCC_H
  27:Generated_Source\PSoC6\pdl\cmsis/include/cmsis_gcc.h **** 
ARM GAS  C:\Users\maxwe\AppData\Local\Temp\cchGHDkA.s 			page 27


  28:Generated_Source\PSoC6\pdl\cmsis/include/cmsis_gcc.h **** /* ignore some GCC warnings */
  29:Generated_Source\PSoC6\pdl\cmsis/include/cmsis_gcc.h **** #pragma GCC diagnostic push
  30:Generated_Source\PSoC6\pdl\cmsis/include/cmsis_gcc.h **** #pragma GCC diagnostic ignored "-Wsign-conversion"
  31:Generated_Source\PSoC6\pdl\cmsis/include/cmsis_gcc.h **** #pragma GCC diagnostic ignored "-Wconversion"
  32:Generated_Source\PSoC6\pdl\cmsis/include/cmsis_gcc.h **** #pragma GCC diagnostic ignored "-Wunused-parameter"
  33:Generated_Source\PSoC6\pdl\cmsis/include/cmsis_gcc.h **** 
  34:Generated_Source\PSoC6\pdl\cmsis/include/cmsis_gcc.h **** /* Fallback for __has_builtin */
  35:Generated_Source\PSoC6\pdl\cmsis/include/cmsis_gcc.h **** #ifndef __has_builtin
  36:Generated_Source\PSoC6\pdl\cmsis/include/cmsis_gcc.h ****   #define __has_builtin(x) (0)
  37:Generated_Source\PSoC6\pdl\cmsis/include/cmsis_gcc.h **** #endif
  38:Generated_Source\PSoC6\pdl\cmsis/include/cmsis_gcc.h **** 
  39:Generated_Source\PSoC6\pdl\cmsis/include/cmsis_gcc.h **** /* CMSIS compiler specific defines */
  40:Generated_Source\PSoC6\pdl\cmsis/include/cmsis_gcc.h **** #ifndef   __ASM
  41:Generated_Source\PSoC6\pdl\cmsis/include/cmsis_gcc.h ****   #define __ASM                                  __asm
  42:Generated_Source\PSoC6\pdl\cmsis/include/cmsis_gcc.h **** #endif
  43:Generated_Source\PSoC6\pdl\cmsis/include/cmsis_gcc.h **** #ifndef   __INLINE
  44:Generated_Source\PSoC6\pdl\cmsis/include/cmsis_gcc.h ****   #define __INLINE                               inline
  45:Generated_Source\PSoC6\pdl\cmsis/include/cmsis_gcc.h **** #endif
  46:Generated_Source\PSoC6\pdl\cmsis/include/cmsis_gcc.h **** #ifndef   __STATIC_INLINE
  47:Generated_Source\PSoC6\pdl\cmsis/include/cmsis_gcc.h ****   #define __STATIC_INLINE                        static inline
  48:Generated_Source\PSoC6\pdl\cmsis/include/cmsis_gcc.h **** #endif
  49:Generated_Source\PSoC6\pdl\cmsis/include/cmsis_gcc.h **** #ifndef   __STATIC_FORCEINLINE                 
  50:Generated_Source\PSoC6\pdl\cmsis/include/cmsis_gcc.h ****   #define __STATIC_FORCEINLINE                   __attribute__((always_inline)) static inline
  51:Generated_Source\PSoC6\pdl\cmsis/include/cmsis_gcc.h **** #endif                                           
  52:Generated_Source\PSoC6\pdl\cmsis/include/cmsis_gcc.h **** #ifndef   __NO_RETURN
  53:Generated_Source\PSoC6\pdl\cmsis/include/cmsis_gcc.h ****   #define __NO_RETURN                            __attribute__((__noreturn__))
  54:Generated_Source\PSoC6\pdl\cmsis/include/cmsis_gcc.h **** #endif
  55:Generated_Source\PSoC6\pdl\cmsis/include/cmsis_gcc.h **** #ifndef   __USED
  56:Generated_Source\PSoC6\pdl\cmsis/include/cmsis_gcc.h ****   #define __USED                                 __attribute__((used))
  57:Generated_Source\PSoC6\pdl\cmsis/include/cmsis_gcc.h **** #endif
  58:Generated_Source\PSoC6\pdl\cmsis/include/cmsis_gcc.h **** #ifndef   __WEAK
  59:Generated_Source\PSoC6\pdl\cmsis/include/cmsis_gcc.h ****   #define __WEAK                                 __attribute__((weak))
  60:Generated_Source\PSoC6\pdl\cmsis/include/cmsis_gcc.h **** #endif
  61:Generated_Source\PSoC6\pdl\cmsis/include/cmsis_gcc.h **** #ifndef   __PACKED
  62:Generated_Source\PSoC6\pdl\cmsis/include/cmsis_gcc.h ****   #define __PACKED                               __attribute__((packed, aligned(1)))
  63:Generated_Source\PSoC6\pdl\cmsis/include/cmsis_gcc.h **** #endif
  64:Generated_Source\PSoC6\pdl\cmsis/include/cmsis_gcc.h **** #ifndef   __PACKED_STRUCT
  65:Generated_Source\PSoC6\pdl\cmsis/include/cmsis_gcc.h ****   #define __PACKED_STRUCT                        struct __attribute__((packed, aligned(1)))
  66:Generated_Source\PSoC6\pdl\cmsis/include/cmsis_gcc.h **** #endif
  67:Generated_Source\PSoC6\pdl\cmsis/include/cmsis_gcc.h **** #ifndef   __PACKED_UNION
  68:Generated_Source\PSoC6\pdl\cmsis/include/cmsis_gcc.h ****   #define __PACKED_UNION                         union __attribute__((packed, aligned(1)))
  69:Generated_Source\PSoC6\pdl\cmsis/include/cmsis_gcc.h **** #endif
  70:Generated_Source\PSoC6\pdl\cmsis/include/cmsis_gcc.h **** #ifndef   __UNALIGNED_UINT32        /* deprecated */
  71:Generated_Source\PSoC6\pdl\cmsis/include/cmsis_gcc.h ****   #pragma GCC diagnostic push
  72:Generated_Source\PSoC6\pdl\cmsis/include/cmsis_gcc.h ****   #pragma GCC diagnostic ignored "-Wpacked"
  73:Generated_Source\PSoC6\pdl\cmsis/include/cmsis_gcc.h ****   #pragma GCC diagnostic ignored "-Wattributes"
  74:Generated_Source\PSoC6\pdl\cmsis/include/cmsis_gcc.h ****   struct __attribute__((packed)) T_UINT32 { uint32_t v; };
  75:Generated_Source\PSoC6\pdl\cmsis/include/cmsis_gcc.h ****   #pragma GCC diagnostic pop
  76:Generated_Source\PSoC6\pdl\cmsis/include/cmsis_gcc.h ****   #define __UNALIGNED_UINT32(x)                  (((struct T_UINT32 *)(x))->v)
  77:Generated_Source\PSoC6\pdl\cmsis/include/cmsis_gcc.h **** #endif
  78:Generated_Source\PSoC6\pdl\cmsis/include/cmsis_gcc.h **** #ifndef   __UNALIGNED_UINT16_WRITE
  79:Generated_Source\PSoC6\pdl\cmsis/include/cmsis_gcc.h ****   #pragma GCC diagnostic push
  80:Generated_Source\PSoC6\pdl\cmsis/include/cmsis_gcc.h ****   #pragma GCC diagnostic ignored "-Wpacked"
  81:Generated_Source\PSoC6\pdl\cmsis/include/cmsis_gcc.h ****   #pragma GCC diagnostic ignored "-Wattributes"
  82:Generated_Source\PSoC6\pdl\cmsis/include/cmsis_gcc.h ****   __PACKED_STRUCT T_UINT16_WRITE { uint16_t v; };
  83:Generated_Source\PSoC6\pdl\cmsis/include/cmsis_gcc.h ****   #pragma GCC diagnostic pop
  84:Generated_Source\PSoC6\pdl\cmsis/include/cmsis_gcc.h ****   #define __UNALIGNED_UINT16_WRITE(addr, val)    (void)((((struct T_UINT16_WRITE *)(void *)(addr))-
ARM GAS  C:\Users\maxwe\AppData\Local\Temp\cchGHDkA.s 			page 28


  85:Generated_Source\PSoC6\pdl\cmsis/include/cmsis_gcc.h **** #endif
  86:Generated_Source\PSoC6\pdl\cmsis/include/cmsis_gcc.h **** #ifndef   __UNALIGNED_UINT16_READ
  87:Generated_Source\PSoC6\pdl\cmsis/include/cmsis_gcc.h ****   #pragma GCC diagnostic push
  88:Generated_Source\PSoC6\pdl\cmsis/include/cmsis_gcc.h ****   #pragma GCC diagnostic ignored "-Wpacked"
  89:Generated_Source\PSoC6\pdl\cmsis/include/cmsis_gcc.h ****   #pragma GCC diagnostic ignored "-Wattributes"
  90:Generated_Source\PSoC6\pdl\cmsis/include/cmsis_gcc.h ****   __PACKED_STRUCT T_UINT16_READ { uint16_t v; };
  91:Generated_Source\PSoC6\pdl\cmsis/include/cmsis_gcc.h ****   #pragma GCC diagnostic pop
  92:Generated_Source\PSoC6\pdl\cmsis/include/cmsis_gcc.h ****   #define __UNALIGNED_UINT16_READ(addr)          (((const struct T_UINT16_READ *)(const void *)(add
  93:Generated_Source\PSoC6\pdl\cmsis/include/cmsis_gcc.h **** #endif
  94:Generated_Source\PSoC6\pdl\cmsis/include/cmsis_gcc.h **** #ifndef   __UNALIGNED_UINT32_WRITE
  95:Generated_Source\PSoC6\pdl\cmsis/include/cmsis_gcc.h ****   #pragma GCC diagnostic push
  96:Generated_Source\PSoC6\pdl\cmsis/include/cmsis_gcc.h ****   #pragma GCC diagnostic ignored "-Wpacked"
  97:Generated_Source\PSoC6\pdl\cmsis/include/cmsis_gcc.h ****   #pragma GCC diagnostic ignored "-Wattributes"
  98:Generated_Source\PSoC6\pdl\cmsis/include/cmsis_gcc.h ****   __PACKED_STRUCT T_UINT32_WRITE { uint32_t v; };
  99:Generated_Source\PSoC6\pdl\cmsis/include/cmsis_gcc.h ****   #pragma GCC diagnostic pop
 100:Generated_Source\PSoC6\pdl\cmsis/include/cmsis_gcc.h ****   #define __UNALIGNED_UINT32_WRITE(addr, val)    (void)((((struct T_UINT32_WRITE *)(void *)(addr))-
 101:Generated_Source\PSoC6\pdl\cmsis/include/cmsis_gcc.h **** #endif
 102:Generated_Source\PSoC6\pdl\cmsis/include/cmsis_gcc.h **** #ifndef   __UNALIGNED_UINT32_READ
 103:Generated_Source\PSoC6\pdl\cmsis/include/cmsis_gcc.h ****   #pragma GCC diagnostic push
 104:Generated_Source\PSoC6\pdl\cmsis/include/cmsis_gcc.h ****   #pragma GCC diagnostic ignored "-Wpacked"
 105:Generated_Source\PSoC6\pdl\cmsis/include/cmsis_gcc.h ****   #pragma GCC diagnostic ignored "-Wattributes"
 106:Generated_Source\PSoC6\pdl\cmsis/include/cmsis_gcc.h ****   __PACKED_STRUCT T_UINT32_READ { uint32_t v; };
 107:Generated_Source\PSoC6\pdl\cmsis/include/cmsis_gcc.h ****   #pragma GCC diagnostic pop
 108:Generated_Source\PSoC6\pdl\cmsis/include/cmsis_gcc.h ****   #define __UNALIGNED_UINT32_READ(addr)          (((const struct T_UINT32_READ *)(const void *)(add
 109:Generated_Source\PSoC6\pdl\cmsis/include/cmsis_gcc.h **** #endif
 110:Generated_Source\PSoC6\pdl\cmsis/include/cmsis_gcc.h **** #ifndef   __ALIGNED
 111:Generated_Source\PSoC6\pdl\cmsis/include/cmsis_gcc.h ****   #define __ALIGNED(x)                           __attribute__((aligned(x)))
 112:Generated_Source\PSoC6\pdl\cmsis/include/cmsis_gcc.h **** #endif
 113:Generated_Source\PSoC6\pdl\cmsis/include/cmsis_gcc.h **** #ifndef   __RESTRICT
 114:Generated_Source\PSoC6\pdl\cmsis/include/cmsis_gcc.h ****   #define __RESTRICT                             __restrict
 115:Generated_Source\PSoC6\pdl\cmsis/include/cmsis_gcc.h **** #endif
 116:Generated_Source\PSoC6\pdl\cmsis/include/cmsis_gcc.h **** 
 117:Generated_Source\PSoC6\pdl\cmsis/include/cmsis_gcc.h **** 
 118:Generated_Source\PSoC6\pdl\cmsis/include/cmsis_gcc.h **** /* ###########################  Core Function Access  ########################### */
 119:Generated_Source\PSoC6\pdl\cmsis/include/cmsis_gcc.h **** /** \ingroup  CMSIS_Core_FunctionInterface
 120:Generated_Source\PSoC6\pdl\cmsis/include/cmsis_gcc.h ****     \defgroup CMSIS_Core_RegAccFunctions CMSIS Core Register Access Functions
 121:Generated_Source\PSoC6\pdl\cmsis/include/cmsis_gcc.h ****   @{
 122:Generated_Source\PSoC6\pdl\cmsis/include/cmsis_gcc.h ****  */
 123:Generated_Source\PSoC6\pdl\cmsis/include/cmsis_gcc.h **** 
 124:Generated_Source\PSoC6\pdl\cmsis/include/cmsis_gcc.h **** /**
 125:Generated_Source\PSoC6\pdl\cmsis/include/cmsis_gcc.h ****   \brief   Enable IRQ Interrupts
 126:Generated_Source\PSoC6\pdl\cmsis/include/cmsis_gcc.h ****   \details Enables IRQ interrupts by clearing the I-bit in the CPSR.
 127:Generated_Source\PSoC6\pdl\cmsis/include/cmsis_gcc.h ****            Can only be executed in Privileged modes.
 128:Generated_Source\PSoC6\pdl\cmsis/include/cmsis_gcc.h ****  */
 129:Generated_Source\PSoC6\pdl\cmsis/include/cmsis_gcc.h **** __STATIC_FORCEINLINE void __enable_irq(void)
 130:Generated_Source\PSoC6\pdl\cmsis/include/cmsis_gcc.h **** {
 131:Generated_Source\PSoC6\pdl\cmsis/include/cmsis_gcc.h ****   __ASM volatile ("cpsie i" : : : "memory");
 357              		.loc 3 131 0
 358              		.syntax unified
 359              	@ 131 "Generated_Source\PSoC6\pdl\cmsis/include/cmsis_gcc.h" 1
 360 0004 62B6     		cpsie i
 361              	@ 0 "" 2
 362              		.thumb
 363              		.syntax unified
 364              	.LBE71:
 365              	.LBE70:
  97:main_cm4.c    ****     
ARM GAS  C:\Users\maxwe\AppData\Local\Temp\cchGHDkA.s 			page 29


 366              		.loc 1 97 0
 367 0006 FFF7FEFF 		bl	CLCD_Init
 368              	.LVL32:
 369              	.LBB72:
 370              	.LBB73:
 371              		.file 4 "Generated_Source\\PSoC6\\pdl\\drivers/peripheral/gpio/cy_gpio.h"
   1:Generated_Source\PSoC6\pdl\drivers/peripheral/gpio/cy_gpio.h **** /***************************************************************************//**
   2:Generated_Source\PSoC6\pdl\drivers/peripheral/gpio/cy_gpio.h **** * \file cy_gpio.h
   3:Generated_Source\PSoC6\pdl\drivers/peripheral/gpio/cy_gpio.h **** * \version 1.20
   4:Generated_Source\PSoC6\pdl\drivers/peripheral/gpio/cy_gpio.h **** *
   5:Generated_Source\PSoC6\pdl\drivers/peripheral/gpio/cy_gpio.h **** * Provides an API declaration of the GPIO driver
   6:Generated_Source\PSoC6\pdl\drivers/peripheral/gpio/cy_gpio.h **** *
   7:Generated_Source\PSoC6\pdl\drivers/peripheral/gpio/cy_gpio.h **** ********************************************************************************
   8:Generated_Source\PSoC6\pdl\drivers/peripheral/gpio/cy_gpio.h **** * \copyright
   9:Generated_Source\PSoC6\pdl\drivers/peripheral/gpio/cy_gpio.h **** * Copyright 2016-2018, Cypress Semiconductor Corporation. All rights reserved.
  10:Generated_Source\PSoC6\pdl\drivers/peripheral/gpio/cy_gpio.h **** * You may use this file only in accordance with the license, terms, conditions,
  11:Generated_Source\PSoC6\pdl\drivers/peripheral/gpio/cy_gpio.h **** * disclaimers, and limitations in the end user license agreement accompanying
  12:Generated_Source\PSoC6\pdl\drivers/peripheral/gpio/cy_gpio.h **** * the software package with which this file was provided.
  13:Generated_Source\PSoC6\pdl\drivers/peripheral/gpio/cy_gpio.h **** *******************************************************************************/
  14:Generated_Source\PSoC6\pdl\drivers/peripheral/gpio/cy_gpio.h **** 
  15:Generated_Source\PSoC6\pdl\drivers/peripheral/gpio/cy_gpio.h **** /**
  16:Generated_Source\PSoC6\pdl\drivers/peripheral/gpio/cy_gpio.h **** * \addtogroup group_gpio
  17:Generated_Source\PSoC6\pdl\drivers/peripheral/gpio/cy_gpio.h **** * \{
  18:Generated_Source\PSoC6\pdl\drivers/peripheral/gpio/cy_gpio.h **** * The GPIO driver provides an API to configure and access device Input/Output pins.
  19:Generated_Source\PSoC6\pdl\drivers/peripheral/gpio/cy_gpio.h **** *
  20:Generated_Source\PSoC6\pdl\drivers/peripheral/gpio/cy_gpio.h **** * The functions and other declarations used in this driver are in cy_gpio.h. 
  21:Generated_Source\PSoC6\pdl\drivers/peripheral/gpio/cy_gpio.h **** * You can include cy_pdl.h (ModusToolbox only) to get access to all functions 
  22:Generated_Source\PSoC6\pdl\drivers/peripheral/gpio/cy_gpio.h **** * and declarations in the PDL.
  23:Generated_Source\PSoC6\pdl\drivers/peripheral/gpio/cy_gpio.h **** *
  24:Generated_Source\PSoC6\pdl\drivers/peripheral/gpio/cy_gpio.h **** * IO pins include all general purpose types such as GPIO, SIO, HSIO, AUXIO, and
  25:Generated_Source\PSoC6\pdl\drivers/peripheral/gpio/cy_gpio.h **** * their variants.
  26:Generated_Source\PSoC6\pdl\drivers/peripheral/gpio/cy_gpio.h **** *
  27:Generated_Source\PSoC6\pdl\drivers/peripheral/gpio/cy_gpio.h **** * Initialization can be performed either at the port level or by configuring the
  28:Generated_Source\PSoC6\pdl\drivers/peripheral/gpio/cy_gpio.h **** * individual pins. For efficient use of code space, port
  29:Generated_Source\PSoC6\pdl\drivers/peripheral/gpio/cy_gpio.h **** * configuration should be used in the field. Refer to the product device header files 
  30:Generated_Source\PSoC6\pdl\drivers/peripheral/gpio/cy_gpio.h **** * for the list of supported ports and pins.
  31:Generated_Source\PSoC6\pdl\drivers/peripheral/gpio/cy_gpio.h **** * 
  32:Generated_Source\PSoC6\pdl\drivers/peripheral/gpio/cy_gpio.h **** * - Single pin configuration is performed by using \ref Cy_GPIO_Pin_FastInit 
  33:Generated_Source\PSoC6\pdl\drivers/peripheral/gpio/cy_gpio.h **** *   (provide specific values) or \ref Cy_GPIO_Pin_Init (provide a filled
  34:Generated_Source\PSoC6\pdl\drivers/peripheral/gpio/cy_gpio.h **** *   cy_stc_gpio_pin_config_t structure).
  35:Generated_Source\PSoC6\pdl\drivers/peripheral/gpio/cy_gpio.h **** * - An entire port can be configured using \ref Cy_GPIO_Port_Init. Provide a filled 
  36:Generated_Source\PSoC6\pdl\drivers/peripheral/gpio/cy_gpio.h **** *   cy_stc_gpio_prt_config_t structure. The values in the structure are 
  37:Generated_Source\PSoC6\pdl\drivers/peripheral/gpio/cy_gpio.h **** *   bitfields representing the desired value for each pin in the port.
  38:Generated_Source\PSoC6\pdl\drivers/peripheral/gpio/cy_gpio.h **** * - Pin configuration and management is based on the port address and pin number.
  39:Generated_Source\PSoC6\pdl\drivers/peripheral/gpio/cy_gpio.h **** *   \ref Cy_GPIO_PortToAddr function can optionally be used to calculate the port
  40:Generated_Source\PSoC6\pdl\drivers/peripheral/gpio/cy_gpio.h **** *   address from the port number at run-time.
  41:Generated_Source\PSoC6\pdl\drivers/peripheral/gpio/cy_gpio.h **** *
  42:Generated_Source\PSoC6\pdl\drivers/peripheral/gpio/cy_gpio.h **** * Once the pin/port initialization is complete, each pin can be accessed by 
  43:Generated_Source\PSoC6\pdl\drivers/peripheral/gpio/cy_gpio.h **** * specifying the port (GPIO_PRT_Type) and the pin (0-7) in the provided API 
  44:Generated_Source\PSoC6\pdl\drivers/peripheral/gpio/cy_gpio.h **** * functions.
  45:Generated_Source\PSoC6\pdl\drivers/peripheral/gpio/cy_gpio.h **** *
  46:Generated_Source\PSoC6\pdl\drivers/peripheral/gpio/cy_gpio.h **** * \section group_gpio_configuration Configuration Considerations
  47:Generated_Source\PSoC6\pdl\drivers/peripheral/gpio/cy_gpio.h **** *
  48:Generated_Source\PSoC6\pdl\drivers/peripheral/gpio/cy_gpio.h **** * 1. Pin multiplexing is controlled through the High-Speed IO Matrix (HSIOM) selection.
  49:Generated_Source\PSoC6\pdl\drivers/peripheral/gpio/cy_gpio.h **** *    This allows the pin to connect to signal sources/sinks throughout the device,
  50:Generated_Source\PSoC6\pdl\drivers/peripheral/gpio/cy_gpio.h **** *    as defined by the pin HSIOM selection options (en_hsiom_sel_t).
  51:Generated_Source\PSoC6\pdl\drivers/peripheral/gpio/cy_gpio.h **** * 2. All pins are initialized to High-Z drive mode with HSIOM connected to CPU (SW
ARM GAS  C:\Users\maxwe\AppData\Local\Temp\cchGHDkA.s 			page 30


  52:Generated_Source\PSoC6\pdl\drivers/peripheral/gpio/cy_gpio.h **** *    control digital pin only) at Power-On-Reset(POR).
  53:Generated_Source\PSoC6\pdl\drivers/peripheral/gpio/cy_gpio.h **** * 3. Some API functions perform read-modify-write operations on shared port
  54:Generated_Source\PSoC6\pdl\drivers/peripheral/gpio/cy_gpio.h **** *    registers. These functions are not thread safe and care must be taken when
  55:Generated_Source\PSoC6\pdl\drivers/peripheral/gpio/cy_gpio.h **** *    called by the application.
  56:Generated_Source\PSoC6\pdl\drivers/peripheral/gpio/cy_gpio.h **** * 4. Digital input buffer provides a high-impedance buffer for the external 
  57:Generated_Source\PSoC6\pdl\drivers/peripheral/gpio/cy_gpio.h **** *    digital input. The input buffer is connected to the HSIOM for routing to 
  58:Generated_Source\PSoC6\pdl\drivers/peripheral/gpio/cy_gpio.h **** *    the CPU port registers and selected peripheral. Enabling the input 
  59:Generated_Source\PSoC6\pdl\drivers/peripheral/gpio/cy_gpio.h **** *    buffer provides possibility to read the pin state via the CPU.
  60:Generated_Source\PSoC6\pdl\drivers/peripheral/gpio/cy_gpio.h **** *    If pin is connected to an analog signal, the input buffer should be 
  61:Generated_Source\PSoC6\pdl\drivers/peripheral/gpio/cy_gpio.h **** *    disabled to avoid crowbar currents. For more information refer to device 
  62:Generated_Source\PSoC6\pdl\drivers/peripheral/gpio/cy_gpio.h **** *    TRM and the device datasheet.
  63:Generated_Source\PSoC6\pdl\drivers/peripheral/gpio/cy_gpio.h **** *
  64:Generated_Source\PSoC6\pdl\drivers/peripheral/gpio/cy_gpio.h **** * Multiple pins on a port can be updated using direct port register writes with an
  65:Generated_Source\PSoC6\pdl\drivers/peripheral/gpio/cy_gpio.h **** * appropriate port mask. An example is shown below, highlighting the different ways of 
  66:Generated_Source\PSoC6\pdl\drivers/peripheral/gpio/cy_gpio.h **** * configuring Port 1 pins using:
  67:Generated_Source\PSoC6\pdl\drivers/peripheral/gpio/cy_gpio.h **** * 
  68:Generated_Source\PSoC6\pdl\drivers/peripheral/gpio/cy_gpio.h **** * - Port output data register
  69:Generated_Source\PSoC6\pdl\drivers/peripheral/gpio/cy_gpio.h **** * - Port output data set register
  70:Generated_Source\PSoC6\pdl\drivers/peripheral/gpio/cy_gpio.h **** * - Port output data clear register
  71:Generated_Source\PSoC6\pdl\drivers/peripheral/gpio/cy_gpio.h **** *
  72:Generated_Source\PSoC6\pdl\drivers/peripheral/gpio/cy_gpio.h **** * \snippet gpio/gpio_v1_10_sut_01.cydsn/main_cm4.c Cy_GPIO_Snippet
  73:Generated_Source\PSoC6\pdl\drivers/peripheral/gpio/cy_gpio.h **** *
  74:Generated_Source\PSoC6\pdl\drivers/peripheral/gpio/cy_gpio.h **** * \section group_gpio_more_information More Information
  75:Generated_Source\PSoC6\pdl\drivers/peripheral/gpio/cy_gpio.h **** *
  76:Generated_Source\PSoC6\pdl\drivers/peripheral/gpio/cy_gpio.h **** * Refer to the technical reference manual (TRM) and the device datasheet.
  77:Generated_Source\PSoC6\pdl\drivers/peripheral/gpio/cy_gpio.h **** *
  78:Generated_Source\PSoC6\pdl\drivers/peripheral/gpio/cy_gpio.h **** * \section group_gpio_MISRA MISRA-C Compliance
  79:Generated_Source\PSoC6\pdl\drivers/peripheral/gpio/cy_gpio.h **** * The GPIO driver has the following specific deviations:
  80:Generated_Source\PSoC6\pdl\drivers/peripheral/gpio/cy_gpio.h **** *
  81:Generated_Source\PSoC6\pdl\drivers/peripheral/gpio/cy_gpio.h **** * <table class="doxtable">
  82:Generated_Source\PSoC6\pdl\drivers/peripheral/gpio/cy_gpio.h **** *   <tr>
  83:Generated_Source\PSoC6\pdl\drivers/peripheral/gpio/cy_gpio.h **** *     <th>MISRA Rule</th>
  84:Generated_Source\PSoC6\pdl\drivers/peripheral/gpio/cy_gpio.h **** *     <th>Rule Class (Required/Advisory)</th>
  85:Generated_Source\PSoC6\pdl\drivers/peripheral/gpio/cy_gpio.h **** *     <th>Rule Description</th>
  86:Generated_Source\PSoC6\pdl\drivers/peripheral/gpio/cy_gpio.h **** *     <th>Description of Deviation(s)</th>
  87:Generated_Source\PSoC6\pdl\drivers/peripheral/gpio/cy_gpio.h **** *   </tr>
  88:Generated_Source\PSoC6\pdl\drivers/peripheral/gpio/cy_gpio.h **** *   <tr>
  89:Generated_Source\PSoC6\pdl\drivers/peripheral/gpio/cy_gpio.h **** *     <td>11.4</td>
  90:Generated_Source\PSoC6\pdl\drivers/peripheral/gpio/cy_gpio.h **** *     <td>A</td>
  91:Generated_Source\PSoC6\pdl\drivers/peripheral/gpio/cy_gpio.h **** *     <td>A cast should not be performed between a pointer to object type and
  92:Generated_Source\PSoC6\pdl\drivers/peripheral/gpio/cy_gpio.h **** *         a different pointer to object type.</td>
  93:Generated_Source\PSoC6\pdl\drivers/peripheral/gpio/cy_gpio.h **** *     <td> This code is safe because the elements of both GPIO_PRT_V1_Type and GPIO_PRT_V2_Type 
  94:Generated_Source\PSoC6\pdl\drivers/peripheral/gpio/cy_gpio.h **** *          types have identical alignment.</td>
  95:Generated_Source\PSoC6\pdl\drivers/peripheral/gpio/cy_gpio.h **** *   </tr>
  96:Generated_Source\PSoC6\pdl\drivers/peripheral/gpio/cy_gpio.h **** *   <tr>
  97:Generated_Source\PSoC6\pdl\drivers/peripheral/gpio/cy_gpio.h **** *     <td>16.7</td>
  98:Generated_Source\PSoC6\pdl\drivers/peripheral/gpio/cy_gpio.h **** *     <td>A</td>
  99:Generated_Source\PSoC6\pdl\drivers/peripheral/gpio/cy_gpio.h **** *     <td>A pointer parameter in a function prototype should be declared as pointer 
 100:Generated_Source\PSoC6\pdl\drivers/peripheral/gpio/cy_gpio.h **** *         to const if the pointer is not used to modify the addressed object.</td>
 101:Generated_Source\PSoC6\pdl\drivers/peripheral/gpio/cy_gpio.h **** *     <td>The objects pointed to by the base addresses of the GPIO port are not always modified.
 102:Generated_Source\PSoC6\pdl\drivers/peripheral/gpio/cy_gpio.h **** *         While a const qualifier can be used in select scenarios, it brings little benefit
 103:Generated_Source\PSoC6\pdl\drivers/peripheral/gpio/cy_gpio.h **** *         in adding this to the affected functions. </td>
 104:Generated_Source\PSoC6\pdl\drivers/peripheral/gpio/cy_gpio.h **** *   </tr>
 105:Generated_Source\PSoC6\pdl\drivers/peripheral/gpio/cy_gpio.h **** * </table>
 106:Generated_Source\PSoC6\pdl\drivers/peripheral/gpio/cy_gpio.h **** *
 107:Generated_Source\PSoC6\pdl\drivers/peripheral/gpio/cy_gpio.h **** * \section group_gpio_changelog Changelog
 108:Generated_Source\PSoC6\pdl\drivers/peripheral/gpio/cy_gpio.h **** * <table class="doxtable">
ARM GAS  C:\Users\maxwe\AppData\Local\Temp\cchGHDkA.s 			page 31


 109:Generated_Source\PSoC6\pdl\drivers/peripheral/gpio/cy_gpio.h **** *   <tr><th>Version</th><th>Changes</th><th>Reason for Change</th></tr>
 110:Generated_Source\PSoC6\pdl\drivers/peripheral/gpio/cy_gpio.h **** *   <tr>
 111:Generated_Source\PSoC6\pdl\drivers/peripheral/gpio/cy_gpio.h **** *     <td rowspan="3">1.20</td>
 112:Generated_Source\PSoC6\pdl\drivers/peripheral/gpio/cy_gpio.h **** *     <td>Flattened the organization of the driver source code into the single source directory and
 113:Generated_Source\PSoC6\pdl\drivers/peripheral/gpio/cy_gpio.h **** *     <td>Driver library directory-structure simplification.</td>
 114:Generated_Source\PSoC6\pdl\drivers/peripheral/gpio/cy_gpio.h **** *   </tr>
 115:Generated_Source\PSoC6\pdl\drivers/peripheral/gpio/cy_gpio.h **** *   <tr>
 116:Generated_Source\PSoC6\pdl\drivers/peripheral/gpio/cy_gpio.h **** *     <td>Added the functions for configuring the AMux bus splitter switch cells:
 117:Generated_Source\PSoC6\pdl\drivers/peripheral/gpio/cy_gpio.h **** *     - \ref Cy_GPIO_SetAmuxSplit
 118:Generated_Source\PSoC6\pdl\drivers/peripheral/gpio/cy_gpio.h **** *     - \ref Cy_GPIO_GetAmuxSplit
 119:Generated_Source\PSoC6\pdl\drivers/peripheral/gpio/cy_gpio.h **** *     </td>
 120:Generated_Source\PSoC6\pdl\drivers/peripheral/gpio/cy_gpio.h **** *     <td>Added a new functionality related to AMux bus.</td>
 121:Generated_Source\PSoC6\pdl\drivers/peripheral/gpio/cy_gpio.h **** *   </tr>
 122:Generated_Source\PSoC6\pdl\drivers/peripheral/gpio/cy_gpio.h **** *   <tr>
 123:Generated_Source\PSoC6\pdl\drivers/peripheral/gpio/cy_gpio.h **** *     <td>Added register access layer. Use register access macros instead
 124:Generated_Source\PSoC6\pdl\drivers/peripheral/gpio/cy_gpio.h **** *         of direct register access using dereferenced pointers.</td>
 125:Generated_Source\PSoC6\pdl\drivers/peripheral/gpio/cy_gpio.h **** *     <td>Makes register access device-independent, so that the PDL does 
 126:Generated_Source\PSoC6\pdl\drivers/peripheral/gpio/cy_gpio.h **** *         not need to be recompiled for each supported part number.</td>
 127:Generated_Source\PSoC6\pdl\drivers/peripheral/gpio/cy_gpio.h **** *   </tr>
 128:Generated_Source\PSoC6\pdl\drivers/peripheral/gpio/cy_gpio.h **** *   <tr>
 129:Generated_Source\PSoC6\pdl\drivers/peripheral/gpio/cy_gpio.h **** *     <td>1.10.1</td>
 130:Generated_Source\PSoC6\pdl\drivers/peripheral/gpio/cy_gpio.h **** *     <td>Updated description for the functions: \ref Cy_GPIO_GetInterruptStatus, 
 131:Generated_Source\PSoC6\pdl\drivers/peripheral/gpio/cy_gpio.h **** *         \ref Cy_GPIO_GetInterruptMask, \ref Cy_GPIO_GetInterruptStatusMasked.
 132:Generated_Source\PSoC6\pdl\drivers/peripheral/gpio/cy_gpio.h **** *
 133:Generated_Source\PSoC6\pdl\drivers/peripheral/gpio/cy_gpio.h **** *         Minor documentation edits.
 134:Generated_Source\PSoC6\pdl\drivers/peripheral/gpio/cy_gpio.h **** *     </td>
 135:Generated_Source\PSoC6\pdl\drivers/peripheral/gpio/cy_gpio.h **** *     <td>Documentation update and clarification</td>
 136:Generated_Source\PSoC6\pdl\drivers/peripheral/gpio/cy_gpio.h **** *   </tr>
 137:Generated_Source\PSoC6\pdl\drivers/peripheral/gpio/cy_gpio.h **** *   <tr>
 138:Generated_Source\PSoC6\pdl\drivers/peripheral/gpio/cy_gpio.h **** *     <td>1.10</td>
 139:Generated_Source\PSoC6\pdl\drivers/peripheral/gpio/cy_gpio.h **** *     <td>Added input parameter validation to the API functions</td>
 140:Generated_Source\PSoC6\pdl\drivers/peripheral/gpio/cy_gpio.h **** *     <td></td>
 141:Generated_Source\PSoC6\pdl\drivers/peripheral/gpio/cy_gpio.h **** *   </tr>
 142:Generated_Source\PSoC6\pdl\drivers/peripheral/gpio/cy_gpio.h **** *   <tr>
 143:Generated_Source\PSoC6\pdl\drivers/peripheral/gpio/cy_gpio.h **** *     <td>1.0</td>
 144:Generated_Source\PSoC6\pdl\drivers/peripheral/gpio/cy_gpio.h **** *     <td>Initial version</td>
 145:Generated_Source\PSoC6\pdl\drivers/peripheral/gpio/cy_gpio.h **** *     <td></td>
 146:Generated_Source\PSoC6\pdl\drivers/peripheral/gpio/cy_gpio.h **** *   </tr>
 147:Generated_Source\PSoC6\pdl\drivers/peripheral/gpio/cy_gpio.h **** * </table>
 148:Generated_Source\PSoC6\pdl\drivers/peripheral/gpio/cy_gpio.h **** *
 149:Generated_Source\PSoC6\pdl\drivers/peripheral/gpio/cy_gpio.h **** * \defgroup group_gpio_macros Macros
 150:Generated_Source\PSoC6\pdl\drivers/peripheral/gpio/cy_gpio.h **** * \defgroup group_gpio_functions Functions
 151:Generated_Source\PSoC6\pdl\drivers/peripheral/gpio/cy_gpio.h **** * \{
 152:Generated_Source\PSoC6\pdl\drivers/peripheral/gpio/cy_gpio.h **** *   \defgroup group_gpio_functions_init       Initialization Functions
 153:Generated_Source\PSoC6\pdl\drivers/peripheral/gpio/cy_gpio.h **** *   \defgroup group_gpio_functions_gpio       GPIO Functions
 154:Generated_Source\PSoC6\pdl\drivers/peripheral/gpio/cy_gpio.h **** *   \defgroup group_gpio_functions_sio        SIO Functions
 155:Generated_Source\PSoC6\pdl\drivers/peripheral/gpio/cy_gpio.h **** *   \defgroup group_gpio_functions_interrupt  Port Interrupt Functions
 156:Generated_Source\PSoC6\pdl\drivers/peripheral/gpio/cy_gpio.h **** * \}
 157:Generated_Source\PSoC6\pdl\drivers/peripheral/gpio/cy_gpio.h **** * \defgroup group_gpio_data_structures Data Structures
 158:Generated_Source\PSoC6\pdl\drivers/peripheral/gpio/cy_gpio.h **** * \defgroup group_gpio_enums Enumerated Types
 159:Generated_Source\PSoC6\pdl\drivers/peripheral/gpio/cy_gpio.h **** */
 160:Generated_Source\PSoC6\pdl\drivers/peripheral/gpio/cy_gpio.h **** 
 161:Generated_Source\PSoC6\pdl\drivers/peripheral/gpio/cy_gpio.h **** #if !defined(CY_GPIO_H)
 162:Generated_Source\PSoC6\pdl\drivers/peripheral/gpio/cy_gpio.h **** #define CY_GPIO_H
 163:Generated_Source\PSoC6\pdl\drivers/peripheral/gpio/cy_gpio.h **** 
 164:Generated_Source\PSoC6\pdl\drivers/peripheral/gpio/cy_gpio.h **** #include <stddef.h>
 165:Generated_Source\PSoC6\pdl\drivers/peripheral/gpio/cy_gpio.h **** #include "cy_device.h"
ARM GAS  C:\Users\maxwe\AppData\Local\Temp\cchGHDkA.s 			page 32


 166:Generated_Source\PSoC6\pdl\drivers/peripheral/gpio/cy_gpio.h **** #include "cy_device_headers.h"
 167:Generated_Source\PSoC6\pdl\drivers/peripheral/gpio/cy_gpio.h **** #include "cy_syslib.h"
 168:Generated_Source\PSoC6\pdl\drivers/peripheral/gpio/cy_gpio.h **** 
 169:Generated_Source\PSoC6\pdl\drivers/peripheral/gpio/cy_gpio.h **** #if defined(__cplusplus)
 170:Generated_Source\PSoC6\pdl\drivers/peripheral/gpio/cy_gpio.h **** extern "C" {
 171:Generated_Source\PSoC6\pdl\drivers/peripheral/gpio/cy_gpio.h **** #endif
 172:Generated_Source\PSoC6\pdl\drivers/peripheral/gpio/cy_gpio.h **** 
 173:Generated_Source\PSoC6\pdl\drivers/peripheral/gpio/cy_gpio.h **** /** \addtogroup group_gpio_macros
 174:Generated_Source\PSoC6\pdl\drivers/peripheral/gpio/cy_gpio.h **** * \{
 175:Generated_Source\PSoC6\pdl\drivers/peripheral/gpio/cy_gpio.h **** */
 176:Generated_Source\PSoC6\pdl\drivers/peripheral/gpio/cy_gpio.h **** 
 177:Generated_Source\PSoC6\pdl\drivers/peripheral/gpio/cy_gpio.h **** /** Driver major version */
 178:Generated_Source\PSoC6\pdl\drivers/peripheral/gpio/cy_gpio.h **** #define CY_GPIO_DRV_VERSION_MAJOR       1
 179:Generated_Source\PSoC6\pdl\drivers/peripheral/gpio/cy_gpio.h **** 
 180:Generated_Source\PSoC6\pdl\drivers/peripheral/gpio/cy_gpio.h **** /** Driver minor version */
 181:Generated_Source\PSoC6\pdl\drivers/peripheral/gpio/cy_gpio.h **** #define CY_GPIO_DRV_VERSION_MINOR       20
 182:Generated_Source\PSoC6\pdl\drivers/peripheral/gpio/cy_gpio.h **** 
 183:Generated_Source\PSoC6\pdl\drivers/peripheral/gpio/cy_gpio.h **** /** GPIO driver ID */
 184:Generated_Source\PSoC6\pdl\drivers/peripheral/gpio/cy_gpio.h **** #define CY_GPIO_ID CY_PDL_DRV_ID(0x16U)
 185:Generated_Source\PSoC6\pdl\drivers/peripheral/gpio/cy_gpio.h **** 
 186:Generated_Source\PSoC6\pdl\drivers/peripheral/gpio/cy_gpio.h **** /** \} group_gpio_macros */
 187:Generated_Source\PSoC6\pdl\drivers/peripheral/gpio/cy_gpio.h **** 
 188:Generated_Source\PSoC6\pdl\drivers/peripheral/gpio/cy_gpio.h **** 
 189:Generated_Source\PSoC6\pdl\drivers/peripheral/gpio/cy_gpio.h **** /***************************************
 190:Generated_Source\PSoC6\pdl\drivers/peripheral/gpio/cy_gpio.h **** *       Enumerations
 191:Generated_Source\PSoC6\pdl\drivers/peripheral/gpio/cy_gpio.h **** ***************************************/
 192:Generated_Source\PSoC6\pdl\drivers/peripheral/gpio/cy_gpio.h **** /**
 193:Generated_Source\PSoC6\pdl\drivers/peripheral/gpio/cy_gpio.h **** * \addtogroup group_gpio_enums
 194:Generated_Source\PSoC6\pdl\drivers/peripheral/gpio/cy_gpio.h **** * \{
 195:Generated_Source\PSoC6\pdl\drivers/peripheral/gpio/cy_gpio.h **** */
 196:Generated_Source\PSoC6\pdl\drivers/peripheral/gpio/cy_gpio.h **** 
 197:Generated_Source\PSoC6\pdl\drivers/peripheral/gpio/cy_gpio.h **** /** GPIO Driver error codes */
 198:Generated_Source\PSoC6\pdl\drivers/peripheral/gpio/cy_gpio.h **** typedef enum 
 199:Generated_Source\PSoC6\pdl\drivers/peripheral/gpio/cy_gpio.h **** {
 200:Generated_Source\PSoC6\pdl\drivers/peripheral/gpio/cy_gpio.h ****     CY_GPIO_SUCCESS   = 0x00U,                                    /**< Returned successful */
 201:Generated_Source\PSoC6\pdl\drivers/peripheral/gpio/cy_gpio.h ****     CY_GPIO_BAD_PARAM = CY_GPIO_ID | CY_PDL_STATUS_ERROR | 0x01U, /**< Bad parameter was passed */
 202:Generated_Source\PSoC6\pdl\drivers/peripheral/gpio/cy_gpio.h **** } cy_en_gpio_status_t;
 203:Generated_Source\PSoC6\pdl\drivers/peripheral/gpio/cy_gpio.h **** 
 204:Generated_Source\PSoC6\pdl\drivers/peripheral/gpio/cy_gpio.h **** /** AMux switch open/close config */
 205:Generated_Source\PSoC6\pdl\drivers/peripheral/gpio/cy_gpio.h **** typedef enum
 206:Generated_Source\PSoC6\pdl\drivers/peripheral/gpio/cy_gpio.h **** {
 207:Generated_Source\PSoC6\pdl\drivers/peripheral/gpio/cy_gpio.h ****     CY_GPIO_AMUX_OPENALL,   /**< Open ground switch. Open right switch. Open left switch */
 208:Generated_Source\PSoC6\pdl\drivers/peripheral/gpio/cy_gpio.h ****     CY_GPIO_AMUX_L,         /**< Open ground switch. Open right switch. Close left switch */
 209:Generated_Source\PSoC6\pdl\drivers/peripheral/gpio/cy_gpio.h ****     CY_GPIO_AMUX_R,         /**< Open ground switch. Close right switch. Open left switch */
 210:Generated_Source\PSoC6\pdl\drivers/peripheral/gpio/cy_gpio.h ****     CY_GPIO_AMUX_LR,        /**< Open ground switch. Close right switch. Close left switch */
 211:Generated_Source\PSoC6\pdl\drivers/peripheral/gpio/cy_gpio.h ****     CY_GPIO_AMUX_G,         /**< Close ground switch. Open right switch. Open left switch */
 212:Generated_Source\PSoC6\pdl\drivers/peripheral/gpio/cy_gpio.h ****     CY_GPIO_AMUX_GL,        /**< Close ground switch. Open right switch. Close left switch */
 213:Generated_Source\PSoC6\pdl\drivers/peripheral/gpio/cy_gpio.h ****     CY_GPIO_AMUX_GR,        /**< Close ground switch. Close right switch. Open left switch */
 214:Generated_Source\PSoC6\pdl\drivers/peripheral/gpio/cy_gpio.h ****     CY_GPIO_AMUX_GLR,       /**< Close ground switch. Close right switch. Close left switch */
 215:Generated_Source\PSoC6\pdl\drivers/peripheral/gpio/cy_gpio.h **** }cy_en_gpio_amuxconnect_t;
 216:Generated_Source\PSoC6\pdl\drivers/peripheral/gpio/cy_gpio.h **** 
 217:Generated_Source\PSoC6\pdl\drivers/peripheral/gpio/cy_gpio.h **** /**
 218:Generated_Source\PSoC6\pdl\drivers/peripheral/gpio/cy_gpio.h **** * AMux Bus selection
 219:Generated_Source\PSoC6\pdl\drivers/peripheral/gpio/cy_gpio.h **** */
 220:Generated_Source\PSoC6\pdl\drivers/peripheral/gpio/cy_gpio.h **** typedef enum
 221:Generated_Source\PSoC6\pdl\drivers/peripheral/gpio/cy_gpio.h **** {
 222:Generated_Source\PSoC6\pdl\drivers/peripheral/gpio/cy_gpio.h ****     CY_GPIO_AMUXBUSA,       /**< AMuxBus A */
ARM GAS  C:\Users\maxwe\AppData\Local\Temp\cchGHDkA.s 			page 33


 223:Generated_Source\PSoC6\pdl\drivers/peripheral/gpio/cy_gpio.h ****     CY_GPIO_AMUXBUSB        /**< AMuxBus B */
 224:Generated_Source\PSoC6\pdl\drivers/peripheral/gpio/cy_gpio.h **** }cy_en_gpio_amuxselect_t;
 225:Generated_Source\PSoC6\pdl\drivers/peripheral/gpio/cy_gpio.h **** 
 226:Generated_Source\PSoC6\pdl\drivers/peripheral/gpio/cy_gpio.h **** /** \} group_gpio_enums */
 227:Generated_Source\PSoC6\pdl\drivers/peripheral/gpio/cy_gpio.h **** 
 228:Generated_Source\PSoC6\pdl\drivers/peripheral/gpio/cy_gpio.h **** 
 229:Generated_Source\PSoC6\pdl\drivers/peripheral/gpio/cy_gpio.h **** /***************************************
 230:Generated_Source\PSoC6\pdl\drivers/peripheral/gpio/cy_gpio.h **** *       Configuration Structures
 231:Generated_Source\PSoC6\pdl\drivers/peripheral/gpio/cy_gpio.h **** ***************************************/
 232:Generated_Source\PSoC6\pdl\drivers/peripheral/gpio/cy_gpio.h **** 
 233:Generated_Source\PSoC6\pdl\drivers/peripheral/gpio/cy_gpio.h **** /**
 234:Generated_Source\PSoC6\pdl\drivers/peripheral/gpio/cy_gpio.h **** * \addtogroup group_gpio_data_structures
 235:Generated_Source\PSoC6\pdl\drivers/peripheral/gpio/cy_gpio.h **** * \{
 236:Generated_Source\PSoC6\pdl\drivers/peripheral/gpio/cy_gpio.h **** */
 237:Generated_Source\PSoC6\pdl\drivers/peripheral/gpio/cy_gpio.h **** 
 238:Generated_Source\PSoC6\pdl\drivers/peripheral/gpio/cy_gpio.h **** /** This structure is used to initialize a port of GPIO pins */
 239:Generated_Source\PSoC6\pdl\drivers/peripheral/gpio/cy_gpio.h **** typedef struct 
 240:Generated_Source\PSoC6\pdl\drivers/peripheral/gpio/cy_gpio.h **** {
 241:Generated_Source\PSoC6\pdl\drivers/peripheral/gpio/cy_gpio.h ****     uint32_t out;           /**< Initial output data for the IO pins in the port */
 242:Generated_Source\PSoC6\pdl\drivers/peripheral/gpio/cy_gpio.h ****     uint32_t intrMask;      /**< Interrupt enable mask for the port interrupt */
 243:Generated_Source\PSoC6\pdl\drivers/peripheral/gpio/cy_gpio.h ****     uint32_t intrCfg;       /**< Port pin interrupt edge detection configuration */
 244:Generated_Source\PSoC6\pdl\drivers/peripheral/gpio/cy_gpio.h ****     uint32_t cfg;           /**< Port pin drive modes and input buffer enable configuration */
 245:Generated_Source\PSoC6\pdl\drivers/peripheral/gpio/cy_gpio.h ****     uint32_t cfgIn;         /**< Port pin input buffer configuration */
 246:Generated_Source\PSoC6\pdl\drivers/peripheral/gpio/cy_gpio.h ****     uint32_t cfgOut;        /**< Port pin output buffer configuration */
 247:Generated_Source\PSoC6\pdl\drivers/peripheral/gpio/cy_gpio.h ****     uint32_t cfgSIO;        /**< Port SIO pins configuration */
 248:Generated_Source\PSoC6\pdl\drivers/peripheral/gpio/cy_gpio.h ****     uint32_t sel0Active;    /**< HSIOM selection for port pins 0,1,2,3 */
 249:Generated_Source\PSoC6\pdl\drivers/peripheral/gpio/cy_gpio.h ****     uint32_t sel1Active;    /**< HSIOM selection for port pins 4,5,6,7 */
 250:Generated_Source\PSoC6\pdl\drivers/peripheral/gpio/cy_gpio.h **** } cy_stc_gpio_prt_config_t;
 251:Generated_Source\PSoC6\pdl\drivers/peripheral/gpio/cy_gpio.h **** 
 252:Generated_Source\PSoC6\pdl\drivers/peripheral/gpio/cy_gpio.h **** /** This structure is used to initialize a single GPIO pin */
 253:Generated_Source\PSoC6\pdl\drivers/peripheral/gpio/cy_gpio.h **** typedef struct
 254:Generated_Source\PSoC6\pdl\drivers/peripheral/gpio/cy_gpio.h **** {
 255:Generated_Source\PSoC6\pdl\drivers/peripheral/gpio/cy_gpio.h ****     uint32_t outVal;         /**< Pin output state */
 256:Generated_Source\PSoC6\pdl\drivers/peripheral/gpio/cy_gpio.h ****     uint32_t driveMode;      /**< Drive mode */
 257:Generated_Source\PSoC6\pdl\drivers/peripheral/gpio/cy_gpio.h ****     en_hsiom_sel_t hsiom;    /**< HSIOM selection */
 258:Generated_Source\PSoC6\pdl\drivers/peripheral/gpio/cy_gpio.h ****     uint32_t intEdge;        /**< Interrupt Edge type */
 259:Generated_Source\PSoC6\pdl\drivers/peripheral/gpio/cy_gpio.h ****     uint32_t intMask;        /**< Interrupt enable mask */
 260:Generated_Source\PSoC6\pdl\drivers/peripheral/gpio/cy_gpio.h ****     uint32_t vtrip;          /**< Input buffer voltage trip type */
 261:Generated_Source\PSoC6\pdl\drivers/peripheral/gpio/cy_gpio.h ****     uint32_t slewRate;       /**< Output buffer slew rate */
 262:Generated_Source\PSoC6\pdl\drivers/peripheral/gpio/cy_gpio.h ****     uint32_t driveSel;       /**< Drive strength */
 263:Generated_Source\PSoC6\pdl\drivers/peripheral/gpio/cy_gpio.h ****     uint32_t vregEn;         /**< SIO pair output buffer mode */
 264:Generated_Source\PSoC6\pdl\drivers/peripheral/gpio/cy_gpio.h ****     uint32_t ibufMode;       /**< SIO pair input buffer mode */
 265:Generated_Source\PSoC6\pdl\drivers/peripheral/gpio/cy_gpio.h ****     uint32_t vtripSel;       /**< SIO pair input buffer trip point */
 266:Generated_Source\PSoC6\pdl\drivers/peripheral/gpio/cy_gpio.h ****     uint32_t vrefSel;        /**< SIO pair reference voltage for input buffer trip point */
 267:Generated_Source\PSoC6\pdl\drivers/peripheral/gpio/cy_gpio.h ****     uint32_t vohSel;         /**< SIO pair regulated voltage output level */
 268:Generated_Source\PSoC6\pdl\drivers/peripheral/gpio/cy_gpio.h **** } cy_stc_gpio_pin_config_t;
 269:Generated_Source\PSoC6\pdl\drivers/peripheral/gpio/cy_gpio.h **** 
 270:Generated_Source\PSoC6\pdl\drivers/peripheral/gpio/cy_gpio.h **** /** \} group_gpio_data_structures */
 271:Generated_Source\PSoC6\pdl\drivers/peripheral/gpio/cy_gpio.h **** 
 272:Generated_Source\PSoC6\pdl\drivers/peripheral/gpio/cy_gpio.h **** /***************************************
 273:Generated_Source\PSoC6\pdl\drivers/peripheral/gpio/cy_gpio.h **** *        Constants
 274:Generated_Source\PSoC6\pdl\drivers/peripheral/gpio/cy_gpio.h **** ***************************************/
 275:Generated_Source\PSoC6\pdl\drivers/peripheral/gpio/cy_gpio.h **** 
 276:Generated_Source\PSoC6\pdl\drivers/peripheral/gpio/cy_gpio.h **** /** \cond INTERNAL */
 277:Generated_Source\PSoC6\pdl\drivers/peripheral/gpio/cy_gpio.h **** 
 278:Generated_Source\PSoC6\pdl\drivers/peripheral/gpio/cy_gpio.h **** /* General Constants */
 279:Generated_Source\PSoC6\pdl\drivers/peripheral/gpio/cy_gpio.h **** #define CY_GPIO_PRT_HALF                       (4UL)      /**< Half-way point of a GPIO port */
ARM GAS  C:\Users\maxwe\AppData\Local\Temp\cchGHDkA.s 			page 34


 280:Generated_Source\PSoC6\pdl\drivers/peripheral/gpio/cy_gpio.h **** #define CY_GPIO_PRT_DEINIT                     (0UL)      /**< De-init value for port registers */
 281:Generated_Source\PSoC6\pdl\drivers/peripheral/gpio/cy_gpio.h **** 
 282:Generated_Source\PSoC6\pdl\drivers/peripheral/gpio/cy_gpio.h **** /* GPIO Masks */
 283:Generated_Source\PSoC6\pdl\drivers/peripheral/gpio/cy_gpio.h **** #define CY_GPIO_HSIOM_MASK                     (0x1FUL)   /**< HSIOM selection mask */
 284:Generated_Source\PSoC6\pdl\drivers/peripheral/gpio/cy_gpio.h **** #define CY_GPIO_OUT_MASK                       (0x01UL)   /**< Single pin mask for OUT register */
 285:Generated_Source\PSoC6\pdl\drivers/peripheral/gpio/cy_gpio.h **** #define CY_GPIO_IN_MASK                        (0x01UL)   /**< Single pin mask for IN register */
 286:Generated_Source\PSoC6\pdl\drivers/peripheral/gpio/cy_gpio.h **** #define CY_GPIO_CFG_DM_MASK                    (0x0FUL)   /**< Single pin mask for drive mode in CF
 287:Generated_Source\PSoC6\pdl\drivers/peripheral/gpio/cy_gpio.h **** #define CY_GPIO_CFG_IN_VTRIP_SEL_MASK          (0x01UL)   /**< Single pin mask for VTRIP selection 
 288:Generated_Source\PSoC6\pdl\drivers/peripheral/gpio/cy_gpio.h **** #define CY_GPIO_CFG_OUT_SLOW_MASK              (0x01UL)   /**< Single pin mask for slew rate in CFG
 289:Generated_Source\PSoC6\pdl\drivers/peripheral/gpio/cy_gpio.h **** #define CY_GPIO_CFG_OUT_DRIVE_SEL_MASK         (0x03UL)   /**< Single pin mask for drive strength i
 290:Generated_Source\PSoC6\pdl\drivers/peripheral/gpio/cy_gpio.h **** #define CY_GPIO_INTR_STATUS_MASK               (0x01UL)   /**< Single pin mask for interrupt status
 291:Generated_Source\PSoC6\pdl\drivers/peripheral/gpio/cy_gpio.h **** #define CY_GPIO_INTR_EN_MASK                   (0x01UL)   /**< Single pin mask for interrupt status
 292:Generated_Source\PSoC6\pdl\drivers/peripheral/gpio/cy_gpio.h **** #define CY_GPIO_INTR_MASKED_MASK               (0x01UL)   /**< Single pin mask for masked interrupt
 293:Generated_Source\PSoC6\pdl\drivers/peripheral/gpio/cy_gpio.h **** #define CY_GPIO_INTR_SET_MASK                  (0x01UL)   /**< Single pin mask for setting the inte
 294:Generated_Source\PSoC6\pdl\drivers/peripheral/gpio/cy_gpio.h **** #define CY_GPIO_INTR_EDGE_MASK                 (0x03UL)   /**< Single pin mask for interrupt edge t
 295:Generated_Source\PSoC6\pdl\drivers/peripheral/gpio/cy_gpio.h **** #define CY_GPIO_INTR_FLT_EDGE_MASK             (0x07UL)   /**< Single pin mask for setting filtered
 296:Generated_Source\PSoC6\pdl\drivers/peripheral/gpio/cy_gpio.h **** 
 297:Generated_Source\PSoC6\pdl\drivers/peripheral/gpio/cy_gpio.h **** /* SIO Masks */
 298:Generated_Source\PSoC6\pdl\drivers/peripheral/gpio/cy_gpio.h **** #define CY_GPIO_VREG_EN_MASK                   (0x01UL)   /**< Single SIO pin mask for voltage regu
 299:Generated_Source\PSoC6\pdl\drivers/peripheral/gpio/cy_gpio.h **** #define CY_GPIO_IBUF_MASK                      (0x01UL)   /**< Single SIO pin mask for input buffer
 300:Generated_Source\PSoC6\pdl\drivers/peripheral/gpio/cy_gpio.h **** #define CY_GPIO_IBUF_SHIFT                     (0x01UL)   /**< Single SIO pin shift for input buffe
 301:Generated_Source\PSoC6\pdl\drivers/peripheral/gpio/cy_gpio.h **** #define CY_GPIO_VTRIP_SEL_MASK                 (0x01UL)   /**< Single SIO pin mask for the input bu
 302:Generated_Source\PSoC6\pdl\drivers/peripheral/gpio/cy_gpio.h **** #define CY_GPIO_VTRIP_SEL_SHIFT                (0x02UL)   /**< Single SIO pin shift for the input b
 303:Generated_Source\PSoC6\pdl\drivers/peripheral/gpio/cy_gpio.h **** #define CY_GPIO_VREF_SEL_MASK                  (0x03UL)   /**< Single SIO pin mask for voltage refe
 304:Generated_Source\PSoC6\pdl\drivers/peripheral/gpio/cy_gpio.h **** #define CY_GPIO_VREF_SEL_SHIFT                 (0x03UL)   /**< Single SIO pin shift for voltage ref
 305:Generated_Source\PSoC6\pdl\drivers/peripheral/gpio/cy_gpio.h **** #define CY_GPIO_VOH_SEL_MASK                   (0x07UL)   /**< Single SIO pin mask for VOH */
 306:Generated_Source\PSoC6\pdl\drivers/peripheral/gpio/cy_gpio.h **** #define CY_GPIO_VOH_SEL_SHIFT                  (0x05UL)   /**< Single SIO pin shift for VOH */
 307:Generated_Source\PSoC6\pdl\drivers/peripheral/gpio/cy_gpio.h **** 
 308:Generated_Source\PSoC6\pdl\drivers/peripheral/gpio/cy_gpio.h **** /* Special mask for SIO pin pair setting */
 309:Generated_Source\PSoC6\pdl\drivers/peripheral/gpio/cy_gpio.h **** #define CY_GPIO_SIO_ODD_PIN_MASK               (0x00FEUL) /**< SIO pin pair selection mask */
 310:Generated_Source\PSoC6\pdl\drivers/peripheral/gpio/cy_gpio.h **** #define CY_GPIO_SIO_PIN_MASK                   (0x00FFUL) /**< SIO pin pair mask */
 311:Generated_Source\PSoC6\pdl\drivers/peripheral/gpio/cy_gpio.h **** 
 312:Generated_Source\PSoC6\pdl\drivers/peripheral/gpio/cy_gpio.h **** /* Offsets */
 313:Generated_Source\PSoC6\pdl\drivers/peripheral/gpio/cy_gpio.h **** #define CY_GPIO_HSIOM_OFFSET                   (3UL)      /**< Offset for HSIOM */
 314:Generated_Source\PSoC6\pdl\drivers/peripheral/gpio/cy_gpio.h **** #define CY_GPIO_DRIVE_MODE_OFFSET              (2UL)      /**< Offset for Drive mode */
 315:Generated_Source\PSoC6\pdl\drivers/peripheral/gpio/cy_gpio.h **** #define CY_GPIO_INBUF_OFFSET                   (3UL)      /**< Offset for input buffer */
 316:Generated_Source\PSoC6\pdl\drivers/peripheral/gpio/cy_gpio.h **** #define CY_GPIO_CFG_OUT_DRIVE_OFFSET           (16UL)     /**< Offset for drive strength */
 317:Generated_Source\PSoC6\pdl\drivers/peripheral/gpio/cy_gpio.h **** #define CY_GPIO_INTR_CFG_OFFSET                (1UL)      /**< Offset for interrupt config */
 318:Generated_Source\PSoC6\pdl\drivers/peripheral/gpio/cy_gpio.h **** #define CY_GPIO_INTR_FILT_OFFSET               (18UL)     /**< Offset for filtered interrupt config
 319:Generated_Source\PSoC6\pdl\drivers/peripheral/gpio/cy_gpio.h **** #define CY_GPIO_CFG_SIO_OFFSET                 (2UL)      /**< Offset for SIO config */
 320:Generated_Source\PSoC6\pdl\drivers/peripheral/gpio/cy_gpio.h **** 
 321:Generated_Source\PSoC6\pdl\drivers/peripheral/gpio/cy_gpio.h **** /* Parameter validation constants */
 322:Generated_Source\PSoC6\pdl\drivers/peripheral/gpio/cy_gpio.h **** #define CY_GPIO_PINS_MAX                       (8UL)      /**< Number of pins in the port */
 323:Generated_Source\PSoC6\pdl\drivers/peripheral/gpio/cy_gpio.h **** #define CY_GPIO_PRT_PINS_MASK                  (0x0000000FFUL)
 324:Generated_Source\PSoC6\pdl\drivers/peripheral/gpio/cy_gpio.h **** #define CY_GPIO_PRT_INTR_CFG_EDGE_SEL_MASK     (GPIO_PRT_INTR_CFG_EDGE0_SEL_Msk | \
 325:Generated_Source\PSoC6\pdl\drivers/peripheral/gpio/cy_gpio.h ****                                                 GPIO_PRT_INTR_CFG_EDGE1_SEL_Msk | \
 326:Generated_Source\PSoC6\pdl\drivers/peripheral/gpio/cy_gpio.h ****                                                 GPIO_PRT_INTR_CFG_EDGE2_SEL_Msk | \
 327:Generated_Source\PSoC6\pdl\drivers/peripheral/gpio/cy_gpio.h ****                                                 GPIO_PRT_INTR_CFG_EDGE3_SEL_Msk | \
 328:Generated_Source\PSoC6\pdl\drivers/peripheral/gpio/cy_gpio.h ****                                                 GPIO_PRT_INTR_CFG_EDGE4_SEL_Msk | \
 329:Generated_Source\PSoC6\pdl\drivers/peripheral/gpio/cy_gpio.h ****                                                 GPIO_PRT_INTR_CFG_EDGE5_SEL_Msk | \
 330:Generated_Source\PSoC6\pdl\drivers/peripheral/gpio/cy_gpio.h ****                                                 GPIO_PRT_INTR_CFG_EDGE6_SEL_Msk | \
 331:Generated_Source\PSoC6\pdl\drivers/peripheral/gpio/cy_gpio.h ****                                                 GPIO_PRT_INTR_CFG_EDGE7_SEL_Msk)
 332:Generated_Source\PSoC6\pdl\drivers/peripheral/gpio/cy_gpio.h **** #define CY_GPIO_PRT_INTR_CFG_RANGE_MASK        (CY_GPIO_PRT_INTR_CFG_EDGE_SEL_MASK | \
 333:Generated_Source\PSoC6\pdl\drivers/peripheral/gpio/cy_gpio.h ****                                                 GPIO_PRT_INTR_CFG_FLT_EDGE_SEL_Msk | \
 334:Generated_Source\PSoC6\pdl\drivers/peripheral/gpio/cy_gpio.h ****                                                 GPIO_PRT_INTR_CFG_FLT_SEL_Msk)
 335:Generated_Source\PSoC6\pdl\drivers/peripheral/gpio/cy_gpio.h **** #define CY_GPIO_PRT_INT_MASK_MASK              (0x0000001FFUL)
 336:Generated_Source\PSoC6\pdl\drivers/peripheral/gpio/cy_gpio.h **** #define CY_GPIO_PRT_SEL_ACTIVE_MASK            (0x1FFFFFFFUL)
ARM GAS  C:\Users\maxwe\AppData\Local\Temp\cchGHDkA.s 			page 35


 337:Generated_Source\PSoC6\pdl\drivers/peripheral/gpio/cy_gpio.h **** 
 338:Generated_Source\PSoC6\pdl\drivers/peripheral/gpio/cy_gpio.h **** #define GPIO_MAX_SPLIT_CELL_SEGMENTS           (9U)
 339:Generated_Source\PSoC6\pdl\drivers/peripheral/gpio/cy_gpio.h **** 
 340:Generated_Source\PSoC6\pdl\drivers/peripheral/gpio/cy_gpio.h **** /* Parameter validation macros */
 341:Generated_Source\PSoC6\pdl\drivers/peripheral/gpio/cy_gpio.h **** #define CY_GPIO_IS_PIN_VALID(pinNum)           (CY_GPIO_PINS_MAX > (pinNum))
 342:Generated_Source\PSoC6\pdl\drivers/peripheral/gpio/cy_gpio.h **** #define CY_GPIO_IS_FILTER_PIN_VALID(pinNum)    (CY_GPIO_PINS_MAX >= (pinNum))
 343:Generated_Source\PSoC6\pdl\drivers/peripheral/gpio/cy_gpio.h **** #define CY_GPIO_IS_VALUE_VALID(outVal)         (1UL >= (outVal))
 344:Generated_Source\PSoC6\pdl\drivers/peripheral/gpio/cy_gpio.h **** #define CY_GPIO_IS_DM_VALID(driveMode)         (0U == ((driveMode) & (uint32_t)~CY_GPIO_CFG_DM_MASK
 345:Generated_Source\PSoC6\pdl\drivers/peripheral/gpio/cy_gpio.h **** 
 346:Generated_Source\PSoC6\pdl\drivers/peripheral/gpio/cy_gpio.h **** #define CY_GPIO_IS_HSIOM_VALID(hsiom)          (0U == ((hsiom) & (uint32_t)~CY_GPIO_HSIOM_MASK))
 347:Generated_Source\PSoC6\pdl\drivers/peripheral/gpio/cy_gpio.h **** 
 348:Generated_Source\PSoC6\pdl\drivers/peripheral/gpio/cy_gpio.h **** #define CY_GPIO_IS_INT_EDGE_VALID(intEdge)     ((CY_GPIO_INTR_DISABLE  == (intEdge)) || \
 349:Generated_Source\PSoC6\pdl\drivers/peripheral/gpio/cy_gpio.h ****                                                 (CY_GPIO_INTR_RISING   == (intEdge)) || \
 350:Generated_Source\PSoC6\pdl\drivers/peripheral/gpio/cy_gpio.h ****                                                 (CY_GPIO_INTR_FALLING  == (intEdge)) || \
 351:Generated_Source\PSoC6\pdl\drivers/peripheral/gpio/cy_gpio.h ****                                                 (CY_GPIO_INTR_BOTH     == (intEdge)))
 352:Generated_Source\PSoC6\pdl\drivers/peripheral/gpio/cy_gpio.h **** 
 353:Generated_Source\PSoC6\pdl\drivers/peripheral/gpio/cy_gpio.h **** #define CY_GPIO_IS_DRIVE_SEL_VALID(driveSel)   ((CY_GPIO_DRIVE_FULL    == (driveSel)) || \
 354:Generated_Source\PSoC6\pdl\drivers/peripheral/gpio/cy_gpio.h ****                                                 (CY_GPIO_DRIVE_1_2     == (driveSel)) || \
 355:Generated_Source\PSoC6\pdl\drivers/peripheral/gpio/cy_gpio.h ****                                                 (CY_GPIO_DRIVE_1_4     == (driveSel)) || \
 356:Generated_Source\PSoC6\pdl\drivers/peripheral/gpio/cy_gpio.h ****                                                 (CY_GPIO_DRIVE_1_8     == (driveSel)))
 357:Generated_Source\PSoC6\pdl\drivers/peripheral/gpio/cy_gpio.h **** 
 358:Generated_Source\PSoC6\pdl\drivers/peripheral/gpio/cy_gpio.h **** #define CY_GPIO_IS_VREF_SEL_VALID(vrefSel)     ((CY_SIO_VREF_PINREF    == (vrefSel)) || \
 359:Generated_Source\PSoC6\pdl\drivers/peripheral/gpio/cy_gpio.h ****                                                 (CY_SIO_VREF_1_2V      == (vrefSel)) || \
 360:Generated_Source\PSoC6\pdl\drivers/peripheral/gpio/cy_gpio.h ****                                                 (CY_SIO_VREF_AMUX_A    == (vrefSel)) || \
 361:Generated_Source\PSoC6\pdl\drivers/peripheral/gpio/cy_gpio.h ****                                                 (CY_SIO_VREF_AMUX_B    == (vrefSel)))
 362:Generated_Source\PSoC6\pdl\drivers/peripheral/gpio/cy_gpio.h **** 
 363:Generated_Source\PSoC6\pdl\drivers/peripheral/gpio/cy_gpio.h **** #define CY_GPIO_IS_VOH_SEL_VALID(vrefSel)      ((CY_SIO_VOH_1_00       == (vrefSel)) || \
 364:Generated_Source\PSoC6\pdl\drivers/peripheral/gpio/cy_gpio.h ****                                                 (CY_SIO_VOH_1_25       == (vrefSel)) || \
 365:Generated_Source\PSoC6\pdl\drivers/peripheral/gpio/cy_gpio.h ****                                                 (CY_SIO_VOH_1_49       == (vrefSel)) || \
 366:Generated_Source\PSoC6\pdl\drivers/peripheral/gpio/cy_gpio.h ****                                                 (CY_SIO_VOH_1_67       == (vrefSel)) || \
 367:Generated_Source\PSoC6\pdl\drivers/peripheral/gpio/cy_gpio.h ****                                                 (CY_SIO_VOH_2_08       == (vrefSel)) || \
 368:Generated_Source\PSoC6\pdl\drivers/peripheral/gpio/cy_gpio.h ****                                                 (CY_SIO_VOH_2_50       == (vrefSel)) || \
 369:Generated_Source\PSoC6\pdl\drivers/peripheral/gpio/cy_gpio.h ****                                                 (CY_SIO_VOH_2_78       == (vrefSel)) || \
 370:Generated_Source\PSoC6\pdl\drivers/peripheral/gpio/cy_gpio.h ****                                                 (CY_SIO_VOH_4_16       == (vrefSel)))
 371:Generated_Source\PSoC6\pdl\drivers/peripheral/gpio/cy_gpio.h ****                    
 372:Generated_Source\PSoC6\pdl\drivers/peripheral/gpio/cy_gpio.h **** #define CY_GPIO_IS_PIN_BIT_VALID(pinBit)       (0U == ((pinBit) & (uint32_t)~CY_GPIO_PRT_PINS_MASK)
 373:Generated_Source\PSoC6\pdl\drivers/peripheral/gpio/cy_gpio.h **** #define CY_GPIO_IS_INTR_CFG_VALID(intrCfg)     (0U == ((intrCfg) & (uint32_t)~CY_GPIO_PRT_INTR_CFG_
 374:Generated_Source\PSoC6\pdl\drivers/peripheral/gpio/cy_gpio.h **** #define CY_GPIO_IS_INTR_MASK_VALID(intrMask)   (0U == ((intrMask) & (uint32_t)~CY_GPIO_PRT_INT_MASK
 375:Generated_Source\PSoC6\pdl\drivers/peripheral/gpio/cy_gpio.h **** #define CY_GPIO_IS_SEL_ACT_VALID(selActive)    (0U == ((selActive) & (uint32_t)~CY_GPIO_PRT_SEL_ACT
 376:Generated_Source\PSoC6\pdl\drivers/peripheral/gpio/cy_gpio.h **** 
 377:Generated_Source\PSoC6\pdl\drivers/peripheral/gpio/cy_gpio.h **** #define CY_GPIO_IS_AMUX_SPLIT_VALID(switchCtrl)       (((uint32_t) (switchCtrl)) < GPIO_MAX_SPLIT_C
 378:Generated_Source\PSoC6\pdl\drivers/peripheral/gpio/cy_gpio.h **** 
 379:Generated_Source\PSoC6\pdl\drivers/peripheral/gpio/cy_gpio.h **** #define CY_GPIO_IS_AMUX_CONNECT_VALID(amuxConnect)    ((CY_GPIO_AMUX_OPENALL == (amuxConnect)) || \
 380:Generated_Source\PSoC6\pdl\drivers/peripheral/gpio/cy_gpio.h ****                                                        (CY_GPIO_AMUX_L       == (amuxConnect)) || \
 381:Generated_Source\PSoC6\pdl\drivers/peripheral/gpio/cy_gpio.h ****                                                        (CY_GPIO_AMUX_R       == (amuxConnect)) || \
 382:Generated_Source\PSoC6\pdl\drivers/peripheral/gpio/cy_gpio.h ****                                                        (CY_GPIO_AMUX_LR      == (amuxConnect)) || \
 383:Generated_Source\PSoC6\pdl\drivers/peripheral/gpio/cy_gpio.h ****                                                        (CY_GPIO_AMUX_G       == (amuxConnect)) || \
 384:Generated_Source\PSoC6\pdl\drivers/peripheral/gpio/cy_gpio.h ****                                                        (CY_GPIO_AMUX_GL      == (amuxConnect)) || \
 385:Generated_Source\PSoC6\pdl\drivers/peripheral/gpio/cy_gpio.h ****                                                        (CY_GPIO_AMUX_GR      == (amuxConnect)) || \
 386:Generated_Source\PSoC6\pdl\drivers/peripheral/gpio/cy_gpio.h ****                                                        (CY_GPIO_AMUX_GLR     == (amuxConnect)))
 387:Generated_Source\PSoC6\pdl\drivers/peripheral/gpio/cy_gpio.h **** 
 388:Generated_Source\PSoC6\pdl\drivers/peripheral/gpio/cy_gpio.h **** #define CY_GPIO_IS_AMUX_SELECT_VALID(amuxBus)       ((CY_GPIO_AMUXBUSA       == (amuxBus)) || \
 389:Generated_Source\PSoC6\pdl\drivers/peripheral/gpio/cy_gpio.h ****                                                      (CY_GPIO_AMUXBUSB       == (amuxBus)))
 390:Generated_Source\PSoC6\pdl\drivers/peripheral/gpio/cy_gpio.h **** /** \endcond */
 391:Generated_Source\PSoC6\pdl\drivers/peripheral/gpio/cy_gpio.h **** 
 392:Generated_Source\PSoC6\pdl\drivers/peripheral/gpio/cy_gpio.h **** 
 393:Generated_Source\PSoC6\pdl\drivers/peripheral/gpio/cy_gpio.h **** /***************************************
ARM GAS  C:\Users\maxwe\AppData\Local\Temp\cchGHDkA.s 			page 36


 394:Generated_Source\PSoC6\pdl\drivers/peripheral/gpio/cy_gpio.h **** *        Function Constants
 395:Generated_Source\PSoC6\pdl\drivers/peripheral/gpio/cy_gpio.h **** ***************************************/
 396:Generated_Source\PSoC6\pdl\drivers/peripheral/gpio/cy_gpio.h **** 
 397:Generated_Source\PSoC6\pdl\drivers/peripheral/gpio/cy_gpio.h **** /**
 398:Generated_Source\PSoC6\pdl\drivers/peripheral/gpio/cy_gpio.h **** * \addtogroup group_gpio_macros
 399:Generated_Source\PSoC6\pdl\drivers/peripheral/gpio/cy_gpio.h **** * \{
 400:Generated_Source\PSoC6\pdl\drivers/peripheral/gpio/cy_gpio.h **** */
 401:Generated_Source\PSoC6\pdl\drivers/peripheral/gpio/cy_gpio.h **** 
 402:Generated_Source\PSoC6\pdl\drivers/peripheral/gpio/cy_gpio.h **** /**
 403:Generated_Source\PSoC6\pdl\drivers/peripheral/gpio/cy_gpio.h **** * \defgroup group_gpio_driveModes Pin drive mode
 404:Generated_Source\PSoC6\pdl\drivers/peripheral/gpio/cy_gpio.h **** * \{
 405:Generated_Source\PSoC6\pdl\drivers/peripheral/gpio/cy_gpio.h **** * Constants to be used for setting the drive mode of the pin.
 406:Generated_Source\PSoC6\pdl\drivers/peripheral/gpio/cy_gpio.h **** */
 407:Generated_Source\PSoC6\pdl\drivers/peripheral/gpio/cy_gpio.h **** #define CY_GPIO_DM_ANALOG                      (0x00UL) /**< Analog High-Z. Input buffer off */
 408:Generated_Source\PSoC6\pdl\drivers/peripheral/gpio/cy_gpio.h **** #define CY_GPIO_DM_PULLUP_IN_OFF               (0x02UL) /**< Resistive Pull-Up. Input buffer off */
 409:Generated_Source\PSoC6\pdl\drivers/peripheral/gpio/cy_gpio.h **** #define CY_GPIO_DM_PULLDOWN_IN_OFF             (0x03UL) /**< Resistive Pull-Down. Input buffer off 
 410:Generated_Source\PSoC6\pdl\drivers/peripheral/gpio/cy_gpio.h **** #define CY_GPIO_DM_OD_DRIVESLOW_IN_OFF         (0x04UL) /**< Open Drain, Drives Low. Input buffer o
 411:Generated_Source\PSoC6\pdl\drivers/peripheral/gpio/cy_gpio.h **** #define CY_GPIO_DM_OD_DRIVESHIGH_IN_OFF        (0x05UL) /**< Open Drain, Drives High. Input buffer 
 412:Generated_Source\PSoC6\pdl\drivers/peripheral/gpio/cy_gpio.h **** #define CY_GPIO_DM_STRONG_IN_OFF               (0x06UL) /**< Strong Drive. Input buffer off */
 413:Generated_Source\PSoC6\pdl\drivers/peripheral/gpio/cy_gpio.h **** #define CY_GPIO_DM_PULLUP_DOWN_IN_OFF          (0x07UL) /**< Resistive Pull-Up/Down. Input buffer o
 414:Generated_Source\PSoC6\pdl\drivers/peripheral/gpio/cy_gpio.h **** #define CY_GPIO_DM_HIGHZ                       (0x08UL) /**< Digital High-Z. Input buffer on */
 415:Generated_Source\PSoC6\pdl\drivers/peripheral/gpio/cy_gpio.h **** #define CY_GPIO_DM_PULLUP                      (0x0AUL) /**< Resistive Pull-Up. Input buffer on */
 416:Generated_Source\PSoC6\pdl\drivers/peripheral/gpio/cy_gpio.h **** #define CY_GPIO_DM_PULLDOWN                    (0x0BUL) /**< Resistive Pull-Down. Input buffer on *
 417:Generated_Source\PSoC6\pdl\drivers/peripheral/gpio/cy_gpio.h **** #define CY_GPIO_DM_OD_DRIVESLOW                (0x0CUL) /**< Open Drain, Drives Low. Input buffer o
 418:Generated_Source\PSoC6\pdl\drivers/peripheral/gpio/cy_gpio.h **** #define CY_GPIO_DM_OD_DRIVESHIGH               (0x0DUL) /**< Open Drain, Drives High. Input buffer 
 419:Generated_Source\PSoC6\pdl\drivers/peripheral/gpio/cy_gpio.h **** #define CY_GPIO_DM_STRONG                      (0x0EUL) /**< Strong Drive. Input buffer on */
 420:Generated_Source\PSoC6\pdl\drivers/peripheral/gpio/cy_gpio.h **** #define CY_GPIO_DM_PULLUP_DOWN                 (0x0FUL) /**< Resistive Pull-Up/Down. Input buffer o
 421:Generated_Source\PSoC6\pdl\drivers/peripheral/gpio/cy_gpio.h **** /** \} */
 422:Generated_Source\PSoC6\pdl\drivers/peripheral/gpio/cy_gpio.h **** 
 423:Generated_Source\PSoC6\pdl\drivers/peripheral/gpio/cy_gpio.h **** /**
 424:Generated_Source\PSoC6\pdl\drivers/peripheral/gpio/cy_gpio.h **** * \defgroup group_gpio_vtrip Voltage trip mode
 425:Generated_Source\PSoC6\pdl\drivers/peripheral/gpio/cy_gpio.h **** * \{
 426:Generated_Source\PSoC6\pdl\drivers/peripheral/gpio/cy_gpio.h **** * Constants to be used for setting the voltage trip type on the pin.
 427:Generated_Source\PSoC6\pdl\drivers/peripheral/gpio/cy_gpio.h **** */
 428:Generated_Source\PSoC6\pdl\drivers/peripheral/gpio/cy_gpio.h **** #define CY_GPIO_VTRIP_CMOS                     (0x00UL) /**< Input buffer compatible with CMOS and 
 429:Generated_Source\PSoC6\pdl\drivers/peripheral/gpio/cy_gpio.h **** #define CY_GPIO_VTRIP_TTL                      (0x01UL) /**< Input buffer compatible with TTL and M
 430:Generated_Source\PSoC6\pdl\drivers/peripheral/gpio/cy_gpio.h **** /** \} */
 431:Generated_Source\PSoC6\pdl\drivers/peripheral/gpio/cy_gpio.h **** 
 432:Generated_Source\PSoC6\pdl\drivers/peripheral/gpio/cy_gpio.h **** /**
 433:Generated_Source\PSoC6\pdl\drivers/peripheral/gpio/cy_gpio.h **** * \defgroup group_gpio_slewRate Slew Rate Mode
 434:Generated_Source\PSoC6\pdl\drivers/peripheral/gpio/cy_gpio.h **** * \{
 435:Generated_Source\PSoC6\pdl\drivers/peripheral/gpio/cy_gpio.h **** * Constants to be used for setting the slew rate of the pin.
 436:Generated_Source\PSoC6\pdl\drivers/peripheral/gpio/cy_gpio.h **** */
 437:Generated_Source\PSoC6\pdl\drivers/peripheral/gpio/cy_gpio.h **** #define CY_GPIO_SLEW_FAST                      (0x00UL) /**< Fast slew rate */
 438:Generated_Source\PSoC6\pdl\drivers/peripheral/gpio/cy_gpio.h **** #define CY_GPIO_SLEW_SLOW                      (0x01UL) /**< Slow slew rate */
 439:Generated_Source\PSoC6\pdl\drivers/peripheral/gpio/cy_gpio.h **** /** \} */
 440:Generated_Source\PSoC6\pdl\drivers/peripheral/gpio/cy_gpio.h **** 
 441:Generated_Source\PSoC6\pdl\drivers/peripheral/gpio/cy_gpio.h **** /**
 442:Generated_Source\PSoC6\pdl\drivers/peripheral/gpio/cy_gpio.h **** * \defgroup group_gpio_driveStrength Pin drive strength
 443:Generated_Source\PSoC6\pdl\drivers/peripheral/gpio/cy_gpio.h **** * \{
 444:Generated_Source\PSoC6\pdl\drivers/peripheral/gpio/cy_gpio.h **** * Constants to be used for setting the drive strength of the pin.
 445:Generated_Source\PSoC6\pdl\drivers/peripheral/gpio/cy_gpio.h **** */
 446:Generated_Source\PSoC6\pdl\drivers/peripheral/gpio/cy_gpio.h **** #define CY_GPIO_DRIVE_FULL                     (0x00UL) /**< Full drive strength: Max drive current
 447:Generated_Source\PSoC6\pdl\drivers/peripheral/gpio/cy_gpio.h **** #define CY_GPIO_DRIVE_1_2                      (0x01UL) /**< 1/2 drive strength: 1/2 drive current 
 448:Generated_Source\PSoC6\pdl\drivers/peripheral/gpio/cy_gpio.h **** #define CY_GPIO_DRIVE_1_4                      (0x02UL) /**< 1/4 drive strength: 1/4 drive current 
 449:Generated_Source\PSoC6\pdl\drivers/peripheral/gpio/cy_gpio.h **** #define CY_GPIO_DRIVE_1_8                      (0x03UL) /**< 1/8 drive strength: 1/8 drive current 
 450:Generated_Source\PSoC6\pdl\drivers/peripheral/gpio/cy_gpio.h **** /** \} */
ARM GAS  C:\Users\maxwe\AppData\Local\Temp\cchGHDkA.s 			page 37


 451:Generated_Source\PSoC6\pdl\drivers/peripheral/gpio/cy_gpio.h **** 
 452:Generated_Source\PSoC6\pdl\drivers/peripheral/gpio/cy_gpio.h **** /**
 453:Generated_Source\PSoC6\pdl\drivers/peripheral/gpio/cy_gpio.h **** * \defgroup group_gpio_interruptTrigger Interrupt trigger type
 454:Generated_Source\PSoC6\pdl\drivers/peripheral/gpio/cy_gpio.h **** * \{
 455:Generated_Source\PSoC6\pdl\drivers/peripheral/gpio/cy_gpio.h **** * Constants to be used for setting the interrupt trigger type on the pin.
 456:Generated_Source\PSoC6\pdl\drivers/peripheral/gpio/cy_gpio.h **** */
 457:Generated_Source\PSoC6\pdl\drivers/peripheral/gpio/cy_gpio.h **** #define CY_GPIO_INTR_DISABLE                   (0x00UL) /**< Disable the pin interrupt generation *
 458:Generated_Source\PSoC6\pdl\drivers/peripheral/gpio/cy_gpio.h **** #define CY_GPIO_INTR_RISING                    (0x01UL) /**< Rising-Edge interrupt */
 459:Generated_Source\PSoC6\pdl\drivers/peripheral/gpio/cy_gpio.h **** #define CY_GPIO_INTR_FALLING                   (0x02UL) /**< Falling-Edge interrupt */
 460:Generated_Source\PSoC6\pdl\drivers/peripheral/gpio/cy_gpio.h **** #define CY_GPIO_INTR_BOTH                      (0x03UL) /**< Both-Edge interrupt */
 461:Generated_Source\PSoC6\pdl\drivers/peripheral/gpio/cy_gpio.h **** /** \} */
 462:Generated_Source\PSoC6\pdl\drivers/peripheral/gpio/cy_gpio.h **** 
 463:Generated_Source\PSoC6\pdl\drivers/peripheral/gpio/cy_gpio.h **** /**
 464:Generated_Source\PSoC6\pdl\drivers/peripheral/gpio/cy_gpio.h **** * \defgroup group_gpio_sioVreg SIO output buffer mode
 465:Generated_Source\PSoC6\pdl\drivers/peripheral/gpio/cy_gpio.h **** * \{
 466:Generated_Source\PSoC6\pdl\drivers/peripheral/gpio/cy_gpio.h **** * Constants to be used for setting the SIO output buffer mode on the pin.
 467:Generated_Source\PSoC6\pdl\drivers/peripheral/gpio/cy_gpio.h **** */
 468:Generated_Source\PSoC6\pdl\drivers/peripheral/gpio/cy_gpio.h **** #define CY_SIO_VREG_UNREGULATED                (0x00UL) /**< Unregulated output buffer */
 469:Generated_Source\PSoC6\pdl\drivers/peripheral/gpio/cy_gpio.h **** #define CY_SIO_VREG_REGULATED                  (0x01UL) /**< Regulated output buffer */
 470:Generated_Source\PSoC6\pdl\drivers/peripheral/gpio/cy_gpio.h **** /** \} */
 471:Generated_Source\PSoC6\pdl\drivers/peripheral/gpio/cy_gpio.h **** 
 472:Generated_Source\PSoC6\pdl\drivers/peripheral/gpio/cy_gpio.h **** /**
 473:Generated_Source\PSoC6\pdl\drivers/peripheral/gpio/cy_gpio.h **** * \defgroup group_gpio_sioIbuf SIO input buffer mode
 474:Generated_Source\PSoC6\pdl\drivers/peripheral/gpio/cy_gpio.h **** * \{
 475:Generated_Source\PSoC6\pdl\drivers/peripheral/gpio/cy_gpio.h **** * Constants to be used for setting the SIO input buffer mode on the pin.
 476:Generated_Source\PSoC6\pdl\drivers/peripheral/gpio/cy_gpio.h **** */
 477:Generated_Source\PSoC6\pdl\drivers/peripheral/gpio/cy_gpio.h **** #define CY_SIO_IBUF_SINGLEENDED                (0x00UL) /**< Single ended input buffer */
 478:Generated_Source\PSoC6\pdl\drivers/peripheral/gpio/cy_gpio.h **** #define CY_SIO_IBUF_DIFFERENTIAL               (0x01UL) /**< Differential input buffer */
 479:Generated_Source\PSoC6\pdl\drivers/peripheral/gpio/cy_gpio.h **** /** \} */
 480:Generated_Source\PSoC6\pdl\drivers/peripheral/gpio/cy_gpio.h **** 
 481:Generated_Source\PSoC6\pdl\drivers/peripheral/gpio/cy_gpio.h **** /**
 482:Generated_Source\PSoC6\pdl\drivers/peripheral/gpio/cy_gpio.h **** * \defgroup group_gpio_sioVtrip SIO input buffer trip-point
 483:Generated_Source\PSoC6\pdl\drivers/peripheral/gpio/cy_gpio.h **** * \{
 484:Generated_Source\PSoC6\pdl\drivers/peripheral/gpio/cy_gpio.h **** * Constants to be used for setting the SIO input buffer trip-point of the pin.
 485:Generated_Source\PSoC6\pdl\drivers/peripheral/gpio/cy_gpio.h **** */
 486:Generated_Source\PSoC6\pdl\drivers/peripheral/gpio/cy_gpio.h **** #define CY_SIO_VTRIP_CMOS                      (0x00UL) /**< CMOS input buffer (single-ended) */
 487:Generated_Source\PSoC6\pdl\drivers/peripheral/gpio/cy_gpio.h **** #define CY_SIO_VTRIP_TTL                       (0x01UL) /**< TTL input buffer (single-ended) */
 488:Generated_Source\PSoC6\pdl\drivers/peripheral/gpio/cy_gpio.h **** #define CY_SIO_VTRIP_0_5VDDIO_0_5VOH           (0x00UL) /**< 0.5xVddio or 0.5xVoh (differential) */
 489:Generated_Source\PSoC6\pdl\drivers/peripheral/gpio/cy_gpio.h **** #define CY_SIO_VTRIP_0_4VDDIO_1_0VREF          (0x01UL) /**< 0.4xVddio or 0.4xVoh (differential) */
 490:Generated_Source\PSoC6\pdl\drivers/peripheral/gpio/cy_gpio.h **** /** \} */
 491:Generated_Source\PSoC6\pdl\drivers/peripheral/gpio/cy_gpio.h **** 
 492:Generated_Source\PSoC6\pdl\drivers/peripheral/gpio/cy_gpio.h **** /**
 493:Generated_Source\PSoC6\pdl\drivers/peripheral/gpio/cy_gpio.h **** * \defgroup group_gpio_sioVref SIO reference voltage for input buffer trip-point
 494:Generated_Source\PSoC6\pdl\drivers/peripheral/gpio/cy_gpio.h **** * \{
 495:Generated_Source\PSoC6\pdl\drivers/peripheral/gpio/cy_gpio.h **** * Constants to be used for setting the reference voltage of SIO input buffer trip-point.
 496:Generated_Source\PSoC6\pdl\drivers/peripheral/gpio/cy_gpio.h **** */
 497:Generated_Source\PSoC6\pdl\drivers/peripheral/gpio/cy_gpio.h **** #define CY_SIO_VREF_PINREF                     (0x00UL) /**< Vref from analog pin */
 498:Generated_Source\PSoC6\pdl\drivers/peripheral/gpio/cy_gpio.h **** #define CY_SIO_VREF_1_2V                       (0x01UL) /**< Vref from internal 1.2V reference */
 499:Generated_Source\PSoC6\pdl\drivers/peripheral/gpio/cy_gpio.h **** #define CY_SIO_VREF_AMUX_A                     (0x02UL) /**< Vref from AMUXBUS_A */
 500:Generated_Source\PSoC6\pdl\drivers/peripheral/gpio/cy_gpio.h **** #define CY_SIO_VREF_AMUX_B                     (0x03UL) /**< Vref from AMUXBUS_B */
 501:Generated_Source\PSoC6\pdl\drivers/peripheral/gpio/cy_gpio.h **** /** \} */
 502:Generated_Source\PSoC6\pdl\drivers/peripheral/gpio/cy_gpio.h **** 
 503:Generated_Source\PSoC6\pdl\drivers/peripheral/gpio/cy_gpio.h **** /**
 504:Generated_Source\PSoC6\pdl\drivers/peripheral/gpio/cy_gpio.h **** * \defgroup group_gpio_sioVoh Regulated output voltage level (Voh) and input buffer trip-point of a
 505:Generated_Source\PSoC6\pdl\drivers/peripheral/gpio/cy_gpio.h **** * \{
 506:Generated_Source\PSoC6\pdl\drivers/peripheral/gpio/cy_gpio.h **** * Constants to be used for setting the Voh and input buffer trip-point of an SIO pair
 507:Generated_Source\PSoC6\pdl\drivers/peripheral/gpio/cy_gpio.h **** */
ARM GAS  C:\Users\maxwe\AppData\Local\Temp\cchGHDkA.s 			page 38


 508:Generated_Source\PSoC6\pdl\drivers/peripheral/gpio/cy_gpio.h **** #define CY_SIO_VOH_1_00                        (0x00UL) /**< Voh = 1 x Reference */
 509:Generated_Source\PSoC6\pdl\drivers/peripheral/gpio/cy_gpio.h **** #define CY_SIO_VOH_1_25                        (0x01UL) /**< Voh = 1.25 x Reference */
 510:Generated_Source\PSoC6\pdl\drivers/peripheral/gpio/cy_gpio.h **** #define CY_SIO_VOH_1_49                        (0x02UL) /**< Voh = 1.49 x Reference */
 511:Generated_Source\PSoC6\pdl\drivers/peripheral/gpio/cy_gpio.h **** #define CY_SIO_VOH_1_67                        (0x03UL) /**< Voh = 1.67 x Reference */
 512:Generated_Source\PSoC6\pdl\drivers/peripheral/gpio/cy_gpio.h **** #define CY_SIO_VOH_2_08                        (0x04UL) /**< Voh = 2.08 x Reference */
 513:Generated_Source\PSoC6\pdl\drivers/peripheral/gpio/cy_gpio.h **** #define CY_SIO_VOH_2_50                        (0x05UL) /**< Voh = 2.50 x Reference */
 514:Generated_Source\PSoC6\pdl\drivers/peripheral/gpio/cy_gpio.h **** #define CY_SIO_VOH_2_78                        (0x06UL) /**< Voh = 2.78 x Reference */
 515:Generated_Source\PSoC6\pdl\drivers/peripheral/gpio/cy_gpio.h **** #define CY_SIO_VOH_4_16                        (0x07UL) /**< Voh = 4.16 x Reference */
 516:Generated_Source\PSoC6\pdl\drivers/peripheral/gpio/cy_gpio.h **** /** \} */
 517:Generated_Source\PSoC6\pdl\drivers/peripheral/gpio/cy_gpio.h **** 
 518:Generated_Source\PSoC6\pdl\drivers/peripheral/gpio/cy_gpio.h **** /** \} group_gpio_macros */
 519:Generated_Source\PSoC6\pdl\drivers/peripheral/gpio/cy_gpio.h **** 
 520:Generated_Source\PSoC6\pdl\drivers/peripheral/gpio/cy_gpio.h **** /***************************************
 521:Generated_Source\PSoC6\pdl\drivers/peripheral/gpio/cy_gpio.h **** *        Function Prototypes
 522:Generated_Source\PSoC6\pdl\drivers/peripheral/gpio/cy_gpio.h **** ***************************************/
 523:Generated_Source\PSoC6\pdl\drivers/peripheral/gpio/cy_gpio.h **** 
 524:Generated_Source\PSoC6\pdl\drivers/peripheral/gpio/cy_gpio.h **** /**
 525:Generated_Source\PSoC6\pdl\drivers/peripheral/gpio/cy_gpio.h **** * \addtogroup group_gpio_functions
 526:Generated_Source\PSoC6\pdl\drivers/peripheral/gpio/cy_gpio.h **** * \{
 527:Generated_Source\PSoC6\pdl\drivers/peripheral/gpio/cy_gpio.h **** */
 528:Generated_Source\PSoC6\pdl\drivers/peripheral/gpio/cy_gpio.h **** 
 529:Generated_Source\PSoC6\pdl\drivers/peripheral/gpio/cy_gpio.h **** /**
 530:Generated_Source\PSoC6\pdl\drivers/peripheral/gpio/cy_gpio.h **** * \addtogroup group_gpio_functions_init
 531:Generated_Source\PSoC6\pdl\drivers/peripheral/gpio/cy_gpio.h **** * \{
 532:Generated_Source\PSoC6\pdl\drivers/peripheral/gpio/cy_gpio.h **** */
 533:Generated_Source\PSoC6\pdl\drivers/peripheral/gpio/cy_gpio.h **** 
 534:Generated_Source\PSoC6\pdl\drivers/peripheral/gpio/cy_gpio.h **** cy_en_gpio_status_t Cy_GPIO_Pin_Init(GPIO_PRT_Type* base, uint32_t pinNum, const cy_stc_gpio_pin_co
 535:Generated_Source\PSoC6\pdl\drivers/peripheral/gpio/cy_gpio.h **** cy_en_gpio_status_t Cy_GPIO_Port_Init(GPIO_PRT_Type* base, const cy_stc_gpio_prt_config_t *config);
 536:Generated_Source\PSoC6\pdl\drivers/peripheral/gpio/cy_gpio.h **** void Cy_GPIO_Pin_FastInit(GPIO_PRT_Type* base, uint32_t pinNum, uint32_t driveMode, uint32_t outVal
 537:Generated_Source\PSoC6\pdl\drivers/peripheral/gpio/cy_gpio.h **** void Cy_GPIO_Port_Deinit(GPIO_PRT_Type* base);
 538:Generated_Source\PSoC6\pdl\drivers/peripheral/gpio/cy_gpio.h **** __STATIC_INLINE void Cy_GPIO_SetHSIOM(GPIO_PRT_Type* base, uint32_t pinNum, en_hsiom_sel_t value);
 539:Generated_Source\PSoC6\pdl\drivers/peripheral/gpio/cy_gpio.h **** __STATIC_INLINE en_hsiom_sel_t Cy_GPIO_GetHSIOM(GPIO_PRT_Type* base, uint32_t pinNum);
 540:Generated_Source\PSoC6\pdl\drivers/peripheral/gpio/cy_gpio.h **** __STATIC_INLINE GPIO_PRT_Type* Cy_GPIO_PortToAddr(uint32_t portNum);
 541:Generated_Source\PSoC6\pdl\drivers/peripheral/gpio/cy_gpio.h **** 
 542:Generated_Source\PSoC6\pdl\drivers/peripheral/gpio/cy_gpio.h **** /** \} group_gpio_functions_init */
 543:Generated_Source\PSoC6\pdl\drivers/peripheral/gpio/cy_gpio.h **** 
 544:Generated_Source\PSoC6\pdl\drivers/peripheral/gpio/cy_gpio.h **** /**
 545:Generated_Source\PSoC6\pdl\drivers/peripheral/gpio/cy_gpio.h **** * \addtogroup group_gpio_functions_gpio
 546:Generated_Source\PSoC6\pdl\drivers/peripheral/gpio/cy_gpio.h **** * \{
 547:Generated_Source\PSoC6\pdl\drivers/peripheral/gpio/cy_gpio.h **** */
 548:Generated_Source\PSoC6\pdl\drivers/peripheral/gpio/cy_gpio.h **** 
 549:Generated_Source\PSoC6\pdl\drivers/peripheral/gpio/cy_gpio.h **** void Cy_GPIO_SetAmuxSplit(cy_en_amux_split_t switchCtrl, cy_en_gpio_amuxconnect_t amuxConnect, cy_e
 550:Generated_Source\PSoC6\pdl\drivers/peripheral/gpio/cy_gpio.h **** cy_en_gpio_amuxconnect_t Cy_GPIO_GetAmuxSplit(cy_en_amux_split_t switchCtrl, cy_en_gpio_amuxselect_
 551:Generated_Source\PSoC6\pdl\drivers/peripheral/gpio/cy_gpio.h **** 
 552:Generated_Source\PSoC6\pdl\drivers/peripheral/gpio/cy_gpio.h **** __STATIC_INLINE uint32_t Cy_GPIO_Read(GPIO_PRT_Type* base, uint32_t pinNum);
 553:Generated_Source\PSoC6\pdl\drivers/peripheral/gpio/cy_gpio.h **** __STATIC_INLINE void Cy_GPIO_Write(GPIO_PRT_Type* base, uint32_t pinNum, uint32_t value);
 554:Generated_Source\PSoC6\pdl\drivers/peripheral/gpio/cy_gpio.h **** __STATIC_INLINE uint32_t Cy_GPIO_ReadOut(GPIO_PRT_Type* base, uint32_t pinNum);
 555:Generated_Source\PSoC6\pdl\drivers/peripheral/gpio/cy_gpio.h **** __STATIC_INLINE void Cy_GPIO_Set(GPIO_PRT_Type* base, uint32_t pinNum);
 556:Generated_Source\PSoC6\pdl\drivers/peripheral/gpio/cy_gpio.h **** __STATIC_INLINE void Cy_GPIO_Clr(GPIO_PRT_Type* base, uint32_t pinNum);
 557:Generated_Source\PSoC6\pdl\drivers/peripheral/gpio/cy_gpio.h **** __STATIC_INLINE void Cy_GPIO_Inv(GPIO_PRT_Type* base, uint32_t pinNum);
 558:Generated_Source\PSoC6\pdl\drivers/peripheral/gpio/cy_gpio.h **** __STATIC_INLINE void Cy_GPIO_SetDrivemode(GPIO_PRT_Type* base, uint32_t pinNum, uint32_t value);
 559:Generated_Source\PSoC6\pdl\drivers/peripheral/gpio/cy_gpio.h **** __STATIC_INLINE uint32_t Cy_GPIO_GetDrivemode(GPIO_PRT_Type* base, uint32_t pinNum);
 560:Generated_Source\PSoC6\pdl\drivers/peripheral/gpio/cy_gpio.h **** __STATIC_INLINE void Cy_GPIO_SetVtrip(GPIO_PRT_Type* base, uint32_t pinNum, uint32_t value);
 561:Generated_Source\PSoC6\pdl\drivers/peripheral/gpio/cy_gpio.h **** __STATIC_INLINE uint32_t Cy_GPIO_GetVtrip(GPIO_PRT_Type* base, uint32_t pinNum);
 562:Generated_Source\PSoC6\pdl\drivers/peripheral/gpio/cy_gpio.h **** __STATIC_INLINE void Cy_GPIO_SetSlewRate(GPIO_PRT_Type* base, uint32_t pinNum, uint32_t value);
 563:Generated_Source\PSoC6\pdl\drivers/peripheral/gpio/cy_gpio.h **** __STATIC_INLINE uint32_t Cy_GPIO_GetSlewRate(GPIO_PRT_Type* base, uint32_t pinNum);
 564:Generated_Source\PSoC6\pdl\drivers/peripheral/gpio/cy_gpio.h **** __STATIC_INLINE void Cy_GPIO_SetDriveSel(GPIO_PRT_Type* base, uint32_t pinNum, uint32_t value);
ARM GAS  C:\Users\maxwe\AppData\Local\Temp\cchGHDkA.s 			page 39


 565:Generated_Source\PSoC6\pdl\drivers/peripheral/gpio/cy_gpio.h **** __STATIC_INLINE uint32_t Cy_GPIO_GetDriveSel(GPIO_PRT_Type* base, uint32_t pinNum);
 566:Generated_Source\PSoC6\pdl\drivers/peripheral/gpio/cy_gpio.h **** 
 567:Generated_Source\PSoC6\pdl\drivers/peripheral/gpio/cy_gpio.h **** /** \} group_gpio_functions_gpio */
 568:Generated_Source\PSoC6\pdl\drivers/peripheral/gpio/cy_gpio.h **** 
 569:Generated_Source\PSoC6\pdl\drivers/peripheral/gpio/cy_gpio.h **** /**
 570:Generated_Source\PSoC6\pdl\drivers/peripheral/gpio/cy_gpio.h **** * \addtogroup group_gpio_functions_sio
 571:Generated_Source\PSoC6\pdl\drivers/peripheral/gpio/cy_gpio.h **** * \{
 572:Generated_Source\PSoC6\pdl\drivers/peripheral/gpio/cy_gpio.h **** */
 573:Generated_Source\PSoC6\pdl\drivers/peripheral/gpio/cy_gpio.h **** 
 574:Generated_Source\PSoC6\pdl\drivers/peripheral/gpio/cy_gpio.h **** __STATIC_INLINE void Cy_GPIO_SetVregEn(GPIO_PRT_Type* base, uint32_t pinNum, uint32_t value);
 575:Generated_Source\PSoC6\pdl\drivers/peripheral/gpio/cy_gpio.h **** __STATIC_INLINE uint32_t Cy_GPIO_GetVregEn(GPIO_PRT_Type* base, uint32_t pinNum);
 576:Generated_Source\PSoC6\pdl\drivers/peripheral/gpio/cy_gpio.h **** __STATIC_INLINE void Cy_GPIO_SetIbufMode(GPIO_PRT_Type* base, uint32_t pinNum, uint32_t value);
 577:Generated_Source\PSoC6\pdl\drivers/peripheral/gpio/cy_gpio.h **** __STATIC_INLINE uint32_t Cy_GPIO_GetIbufMode(GPIO_PRT_Type* base, uint32_t pinNum);
 578:Generated_Source\PSoC6\pdl\drivers/peripheral/gpio/cy_gpio.h **** __STATIC_INLINE void Cy_GPIO_SetVtripSel(GPIO_PRT_Type* base, uint32_t pinNum, uint32_t value);
 579:Generated_Source\PSoC6\pdl\drivers/peripheral/gpio/cy_gpio.h **** __STATIC_INLINE uint32_t Cy_GPIO_GetVtripSel(GPIO_PRT_Type* base, uint32_t pinNum);
 580:Generated_Source\PSoC6\pdl\drivers/peripheral/gpio/cy_gpio.h **** __STATIC_INLINE void Cy_GPIO_SetVrefSel(GPIO_PRT_Type* base, uint32_t pinNum, uint32_t value);
 581:Generated_Source\PSoC6\pdl\drivers/peripheral/gpio/cy_gpio.h **** __STATIC_INLINE uint32_t Cy_GPIO_GetVrefSel(GPIO_PRT_Type* base, uint32_t pinNum);
 582:Generated_Source\PSoC6\pdl\drivers/peripheral/gpio/cy_gpio.h **** __STATIC_INLINE void Cy_GPIO_SetVohSel(GPIO_PRT_Type* base, uint32_t pinNum, uint32_t value);
 583:Generated_Source\PSoC6\pdl\drivers/peripheral/gpio/cy_gpio.h **** __STATIC_INLINE uint32_t Cy_GPIO_GetVohSel(GPIO_PRT_Type* base, uint32_t pinNum);
 584:Generated_Source\PSoC6\pdl\drivers/peripheral/gpio/cy_gpio.h **** 
 585:Generated_Source\PSoC6\pdl\drivers/peripheral/gpio/cy_gpio.h **** /** \} group_gpio_functions_sio */
 586:Generated_Source\PSoC6\pdl\drivers/peripheral/gpio/cy_gpio.h **** 
 587:Generated_Source\PSoC6\pdl\drivers/peripheral/gpio/cy_gpio.h **** /**
 588:Generated_Source\PSoC6\pdl\drivers/peripheral/gpio/cy_gpio.h **** * \addtogroup group_gpio_functions_interrupt
 589:Generated_Source\PSoC6\pdl\drivers/peripheral/gpio/cy_gpio.h **** * \{
 590:Generated_Source\PSoC6\pdl\drivers/peripheral/gpio/cy_gpio.h **** */
 591:Generated_Source\PSoC6\pdl\drivers/peripheral/gpio/cy_gpio.h **** 
 592:Generated_Source\PSoC6\pdl\drivers/peripheral/gpio/cy_gpio.h **** __STATIC_INLINE uint32_t Cy_GPIO_GetInterruptStatus(GPIO_PRT_Type* base, uint32_t pinNum);
 593:Generated_Source\PSoC6\pdl\drivers/peripheral/gpio/cy_gpio.h **** __STATIC_INLINE void Cy_GPIO_ClearInterrupt(GPIO_PRT_Type* base, uint32_t pinNum);
 594:Generated_Source\PSoC6\pdl\drivers/peripheral/gpio/cy_gpio.h **** __STATIC_INLINE void Cy_GPIO_SetInterruptMask(GPIO_PRT_Type* base, uint32_t pinNum, uint32_t value)
 595:Generated_Source\PSoC6\pdl\drivers/peripheral/gpio/cy_gpio.h **** __STATIC_INLINE uint32_t Cy_GPIO_GetInterruptMask(GPIO_PRT_Type* base, uint32_t pinNum);
 596:Generated_Source\PSoC6\pdl\drivers/peripheral/gpio/cy_gpio.h **** __STATIC_INLINE uint32_t Cy_GPIO_GetInterruptStatusMasked(GPIO_PRT_Type* base, uint32_t pinNum);
 597:Generated_Source\PSoC6\pdl\drivers/peripheral/gpio/cy_gpio.h **** __STATIC_INLINE void Cy_GPIO_SetSwInterrupt(GPIO_PRT_Type* base, uint32_t pinNum);
 598:Generated_Source\PSoC6\pdl\drivers/peripheral/gpio/cy_gpio.h **** __STATIC_INLINE void Cy_GPIO_SetInterruptEdge(GPIO_PRT_Type* base, uint32_t pinNum, uint32_t value)
 599:Generated_Source\PSoC6\pdl\drivers/peripheral/gpio/cy_gpio.h **** __STATIC_INLINE uint32_t Cy_GPIO_GetInterruptEdge(GPIO_PRT_Type* base, uint32_t pinNum);
 600:Generated_Source\PSoC6\pdl\drivers/peripheral/gpio/cy_gpio.h **** __STATIC_INLINE void Cy_GPIO_SetFilter(GPIO_PRT_Type* base, uint32_t value);
 601:Generated_Source\PSoC6\pdl\drivers/peripheral/gpio/cy_gpio.h **** __STATIC_INLINE uint32_t Cy_GPIO_GetFilter(GPIO_PRT_Type* base);
 602:Generated_Source\PSoC6\pdl\drivers/peripheral/gpio/cy_gpio.h **** 
 603:Generated_Source\PSoC6\pdl\drivers/peripheral/gpio/cy_gpio.h **** __STATIC_INLINE uint32_t Cy_GPIO_GetInterruptCause0(void);
 604:Generated_Source\PSoC6\pdl\drivers/peripheral/gpio/cy_gpio.h **** __STATIC_INLINE uint32_t Cy_GPIO_GetInterruptCause1(void);
 605:Generated_Source\PSoC6\pdl\drivers/peripheral/gpio/cy_gpio.h **** __STATIC_INLINE uint32_t Cy_GPIO_GetInterruptCause2(void);
 606:Generated_Source\PSoC6\pdl\drivers/peripheral/gpio/cy_gpio.h **** __STATIC_INLINE uint32_t Cy_GPIO_GetInterruptCause3(void);
 607:Generated_Source\PSoC6\pdl\drivers/peripheral/gpio/cy_gpio.h **** 
 608:Generated_Source\PSoC6\pdl\drivers/peripheral/gpio/cy_gpio.h **** /** \} group_gpio_functions_interrupt */
 609:Generated_Source\PSoC6\pdl\drivers/peripheral/gpio/cy_gpio.h **** 
 610:Generated_Source\PSoC6\pdl\drivers/peripheral/gpio/cy_gpio.h **** 
 611:Generated_Source\PSoC6\pdl\drivers/peripheral/gpio/cy_gpio.h **** /**
 612:Generated_Source\PSoC6\pdl\drivers/peripheral/gpio/cy_gpio.h **** * \addtogroup group_gpio_functions_init
 613:Generated_Source\PSoC6\pdl\drivers/peripheral/gpio/cy_gpio.h **** * \{
 614:Generated_Source\PSoC6\pdl\drivers/peripheral/gpio/cy_gpio.h **** */
 615:Generated_Source\PSoC6\pdl\drivers/peripheral/gpio/cy_gpio.h **** 
 616:Generated_Source\PSoC6\pdl\drivers/peripheral/gpio/cy_gpio.h **** /*******************************************************************************
 617:Generated_Source\PSoC6\pdl\drivers/peripheral/gpio/cy_gpio.h **** * Function Name: Cy_GPIO_SetHSIOM
 618:Generated_Source\PSoC6\pdl\drivers/peripheral/gpio/cy_gpio.h **** ****************************************************************************//**
 619:Generated_Source\PSoC6\pdl\drivers/peripheral/gpio/cy_gpio.h **** *
 620:Generated_Source\PSoC6\pdl\drivers/peripheral/gpio/cy_gpio.h **** * Configures the HSIOM connection to the pin.
 621:Generated_Source\PSoC6\pdl\drivers/peripheral/gpio/cy_gpio.h **** *
ARM GAS  C:\Users\maxwe\AppData\Local\Temp\cchGHDkA.s 			page 40


 622:Generated_Source\PSoC6\pdl\drivers/peripheral/gpio/cy_gpio.h **** * Connects the specified High-Speed Input Output Multiplexer (HSIOM) selection
 623:Generated_Source\PSoC6\pdl\drivers/peripheral/gpio/cy_gpio.h **** * to the pin.
 624:Generated_Source\PSoC6\pdl\drivers/peripheral/gpio/cy_gpio.h **** *
 625:Generated_Source\PSoC6\pdl\drivers/peripheral/gpio/cy_gpio.h **** * \param base
 626:Generated_Source\PSoC6\pdl\drivers/peripheral/gpio/cy_gpio.h **** * Pointer to the pin's port register base address
 627:Generated_Source\PSoC6\pdl\drivers/peripheral/gpio/cy_gpio.h **** *
 628:Generated_Source\PSoC6\pdl\drivers/peripheral/gpio/cy_gpio.h **** * \param pinNum
 629:Generated_Source\PSoC6\pdl\drivers/peripheral/gpio/cy_gpio.h **** * Position of the pin bit-field within the port register
 630:Generated_Source\PSoC6\pdl\drivers/peripheral/gpio/cy_gpio.h **** *
 631:Generated_Source\PSoC6\pdl\drivers/peripheral/gpio/cy_gpio.h **** * \param value
 632:Generated_Source\PSoC6\pdl\drivers/peripheral/gpio/cy_gpio.h **** * HSIOM input selection
 633:Generated_Source\PSoC6\pdl\drivers/peripheral/gpio/cy_gpio.h **** *
 634:Generated_Source\PSoC6\pdl\drivers/peripheral/gpio/cy_gpio.h **** * \note 
 635:Generated_Source\PSoC6\pdl\drivers/peripheral/gpio/cy_gpio.h **** * This function modifies a port register in a read-modify-write operation. It is
 636:Generated_Source\PSoC6\pdl\drivers/peripheral/gpio/cy_gpio.h **** * not thread safe as the resource is shared among multiple pins on a port.
 637:Generated_Source\PSoC6\pdl\drivers/peripheral/gpio/cy_gpio.h **** *
 638:Generated_Source\PSoC6\pdl\drivers/peripheral/gpio/cy_gpio.h **** * \funcusage
 639:Generated_Source\PSoC6\pdl\drivers/peripheral/gpio/cy_gpio.h **** * \snippet gpio/gpio_v1_10_sut_01.cydsn/main_cm4.c snippet_Cy_GPIO_SetHSIOM
 640:Generated_Source\PSoC6\pdl\drivers/peripheral/gpio/cy_gpio.h **** *
 641:Generated_Source\PSoC6\pdl\drivers/peripheral/gpio/cy_gpio.h **** *******************************************************************************/
 642:Generated_Source\PSoC6\pdl\drivers/peripheral/gpio/cy_gpio.h **** __STATIC_INLINE void Cy_GPIO_SetHSIOM(GPIO_PRT_Type* base, uint32_t pinNum, en_hsiom_sel_t value)
 643:Generated_Source\PSoC6\pdl\drivers/peripheral/gpio/cy_gpio.h **** {
 644:Generated_Source\PSoC6\pdl\drivers/peripheral/gpio/cy_gpio.h ****     uint32_t portNum;
 645:Generated_Source\PSoC6\pdl\drivers/peripheral/gpio/cy_gpio.h ****     uint32_t tempReg;
 646:Generated_Source\PSoC6\pdl\drivers/peripheral/gpio/cy_gpio.h ****     HSIOM_PRT_V1_Type* portAddrHSIOM;
 647:Generated_Source\PSoC6\pdl\drivers/peripheral/gpio/cy_gpio.h **** 
 648:Generated_Source\PSoC6\pdl\drivers/peripheral/gpio/cy_gpio.h ****     CY_ASSERT_L2(CY_GPIO_IS_PIN_VALID(pinNum));
 649:Generated_Source\PSoC6\pdl\drivers/peripheral/gpio/cy_gpio.h ****     CY_ASSERT_L2(CY_GPIO_IS_HSIOM_VALID(value));
 650:Generated_Source\PSoC6\pdl\drivers/peripheral/gpio/cy_gpio.h **** 
 651:Generated_Source\PSoC6\pdl\drivers/peripheral/gpio/cy_gpio.h ****     portNum = ((uint32_t)(base) - CY_GPIO_BASE) / GPIO_PRT_SECTION_SIZE;
 652:Generated_Source\PSoC6\pdl\drivers/peripheral/gpio/cy_gpio.h ****     portAddrHSIOM = (HSIOM_PRT_V1_Type*)(CY_HSIOM_BASE + (HSIOM_PRT_SECTION_SIZE * portNum));
 653:Generated_Source\PSoC6\pdl\drivers/peripheral/gpio/cy_gpio.h **** 
 654:Generated_Source\PSoC6\pdl\drivers/peripheral/gpio/cy_gpio.h ****     if(pinNum < CY_GPIO_PRT_HALF)
 655:Generated_Source\PSoC6\pdl\drivers/peripheral/gpio/cy_gpio.h ****     {
 656:Generated_Source\PSoC6\pdl\drivers/peripheral/gpio/cy_gpio.h ****         tempReg = HSIOM_PRT_PORT_SEL0(portAddrHSIOM) & ~(CY_GPIO_HSIOM_MASK << (pinNum << CY_GPIO_H
 657:Generated_Source\PSoC6\pdl\drivers/peripheral/gpio/cy_gpio.h ****         HSIOM_PRT_PORT_SEL0(portAddrHSIOM) = tempReg | ((value & CY_GPIO_HSIOM_MASK) << (pinNum << 
 658:Generated_Source\PSoC6\pdl\drivers/peripheral/gpio/cy_gpio.h ****     }
 659:Generated_Source\PSoC6\pdl\drivers/peripheral/gpio/cy_gpio.h ****     else
 660:Generated_Source\PSoC6\pdl\drivers/peripheral/gpio/cy_gpio.h ****     {
 661:Generated_Source\PSoC6\pdl\drivers/peripheral/gpio/cy_gpio.h ****         pinNum -= CY_GPIO_PRT_HALF;
 662:Generated_Source\PSoC6\pdl\drivers/peripheral/gpio/cy_gpio.h ****         tempReg = HSIOM_PRT_PORT_SEL1(portAddrHSIOM) & ~(CY_GPIO_HSIOM_MASK << (pinNum << CY_GPIO_H
 663:Generated_Source\PSoC6\pdl\drivers/peripheral/gpio/cy_gpio.h ****         HSIOM_PRT_PORT_SEL1(portAddrHSIOM) = tempReg | ((value & CY_GPIO_HSIOM_MASK) << (pinNum << 
 664:Generated_Source\PSoC6\pdl\drivers/peripheral/gpio/cy_gpio.h ****     }
 665:Generated_Source\PSoC6\pdl\drivers/peripheral/gpio/cy_gpio.h **** }
 666:Generated_Source\PSoC6\pdl\drivers/peripheral/gpio/cy_gpio.h **** 
 667:Generated_Source\PSoC6\pdl\drivers/peripheral/gpio/cy_gpio.h **** 
 668:Generated_Source\PSoC6\pdl\drivers/peripheral/gpio/cy_gpio.h **** /*******************************************************************************
 669:Generated_Source\PSoC6\pdl\drivers/peripheral/gpio/cy_gpio.h **** * Function Name: Cy_GPIO_GetHSIOM
 670:Generated_Source\PSoC6\pdl\drivers/peripheral/gpio/cy_gpio.h **** ****************************************************************************//**
 671:Generated_Source\PSoC6\pdl\drivers/peripheral/gpio/cy_gpio.h **** *
 672:Generated_Source\PSoC6\pdl\drivers/peripheral/gpio/cy_gpio.h **** * Returns the current HSIOM multiplexer connection to the pin.
 673:Generated_Source\PSoC6\pdl\drivers/peripheral/gpio/cy_gpio.h **** *
 674:Generated_Source\PSoC6\pdl\drivers/peripheral/gpio/cy_gpio.h **** * \param base
 675:Generated_Source\PSoC6\pdl\drivers/peripheral/gpio/cy_gpio.h **** * Pointer to the pin's port register base address
 676:Generated_Source\PSoC6\pdl\drivers/peripheral/gpio/cy_gpio.h **** *
 677:Generated_Source\PSoC6\pdl\drivers/peripheral/gpio/cy_gpio.h **** * \param pinNum
 678:Generated_Source\PSoC6\pdl\drivers/peripheral/gpio/cy_gpio.h **** * Position of the pin bit-field within the port register
ARM GAS  C:\Users\maxwe\AppData\Local\Temp\cchGHDkA.s 			page 41


 679:Generated_Source\PSoC6\pdl\drivers/peripheral/gpio/cy_gpio.h **** *
 680:Generated_Source\PSoC6\pdl\drivers/peripheral/gpio/cy_gpio.h **** * \return
 681:Generated_Source\PSoC6\pdl\drivers/peripheral/gpio/cy_gpio.h **** * HSIOM input selection
 682:Generated_Source\PSoC6\pdl\drivers/peripheral/gpio/cy_gpio.h **** *
 683:Generated_Source\PSoC6\pdl\drivers/peripheral/gpio/cy_gpio.h **** * \funcusage
 684:Generated_Source\PSoC6\pdl\drivers/peripheral/gpio/cy_gpio.h **** * \snippet gpio/gpio_v1_10_sut_01.cydsn/main_cm4.c snippet_Cy_GPIO_SetHSIOM
 685:Generated_Source\PSoC6\pdl\drivers/peripheral/gpio/cy_gpio.h **** *
 686:Generated_Source\PSoC6\pdl\drivers/peripheral/gpio/cy_gpio.h **** *******************************************************************************/
 687:Generated_Source\PSoC6\pdl\drivers/peripheral/gpio/cy_gpio.h **** __STATIC_INLINE en_hsiom_sel_t Cy_GPIO_GetHSIOM(GPIO_PRT_Type* base, uint32_t pinNum)
 688:Generated_Source\PSoC6\pdl\drivers/peripheral/gpio/cy_gpio.h **** {
 689:Generated_Source\PSoC6\pdl\drivers/peripheral/gpio/cy_gpio.h ****     uint32_t returnValue;
 690:Generated_Source\PSoC6\pdl\drivers/peripheral/gpio/cy_gpio.h ****     uint32_t portNum;
 691:Generated_Source\PSoC6\pdl\drivers/peripheral/gpio/cy_gpio.h ****     HSIOM_PRT_V1_Type* portAddrHSIOM;
 692:Generated_Source\PSoC6\pdl\drivers/peripheral/gpio/cy_gpio.h ****     
 693:Generated_Source\PSoC6\pdl\drivers/peripheral/gpio/cy_gpio.h ****     CY_ASSERT_L2(CY_GPIO_IS_PIN_VALID(pinNum));
 694:Generated_Source\PSoC6\pdl\drivers/peripheral/gpio/cy_gpio.h **** 
 695:Generated_Source\PSoC6\pdl\drivers/peripheral/gpio/cy_gpio.h ****     portNum = ((uint32_t)(base) - CY_GPIO_BASE) / GPIO_PRT_SECTION_SIZE;
 696:Generated_Source\PSoC6\pdl\drivers/peripheral/gpio/cy_gpio.h ****     portAddrHSIOM = (HSIOM_PRT_V1_Type*)(CY_HSIOM_BASE + (HSIOM_PRT_SECTION_SIZE * portNum));
 697:Generated_Source\PSoC6\pdl\drivers/peripheral/gpio/cy_gpio.h **** 
 698:Generated_Source\PSoC6\pdl\drivers/peripheral/gpio/cy_gpio.h ****     if(pinNum < CY_GPIO_PRT_HALF)
 699:Generated_Source\PSoC6\pdl\drivers/peripheral/gpio/cy_gpio.h ****     {
 700:Generated_Source\PSoC6\pdl\drivers/peripheral/gpio/cy_gpio.h ****         returnValue = (HSIOM_PRT_PORT_SEL0(portAddrHSIOM) >> (pinNum << CY_GPIO_HSIOM_OFFSET)) & CY
 701:Generated_Source\PSoC6\pdl\drivers/peripheral/gpio/cy_gpio.h ****     }
 702:Generated_Source\PSoC6\pdl\drivers/peripheral/gpio/cy_gpio.h ****     else
 703:Generated_Source\PSoC6\pdl\drivers/peripheral/gpio/cy_gpio.h ****     {
 704:Generated_Source\PSoC6\pdl\drivers/peripheral/gpio/cy_gpio.h ****         pinNum -= CY_GPIO_PRT_HALF;
 705:Generated_Source\PSoC6\pdl\drivers/peripheral/gpio/cy_gpio.h ****         returnValue = (HSIOM_PRT_PORT_SEL1(portAddrHSIOM) >> (pinNum << CY_GPIO_HSIOM_OFFSET)) & CY
 706:Generated_Source\PSoC6\pdl\drivers/peripheral/gpio/cy_gpio.h ****     }
 707:Generated_Source\PSoC6\pdl\drivers/peripheral/gpio/cy_gpio.h **** 
 708:Generated_Source\PSoC6\pdl\drivers/peripheral/gpio/cy_gpio.h ****     return (en_hsiom_sel_t)returnValue;
 709:Generated_Source\PSoC6\pdl\drivers/peripheral/gpio/cy_gpio.h **** }
 710:Generated_Source\PSoC6\pdl\drivers/peripheral/gpio/cy_gpio.h **** 
 711:Generated_Source\PSoC6\pdl\drivers/peripheral/gpio/cy_gpio.h **** 
 712:Generated_Source\PSoC6\pdl\drivers/peripheral/gpio/cy_gpio.h **** /*******************************************************************************
 713:Generated_Source\PSoC6\pdl\drivers/peripheral/gpio/cy_gpio.h **** * Function Name: Cy_GPIO_PortToAddr
 714:Generated_Source\PSoC6\pdl\drivers/peripheral/gpio/cy_gpio.h **** ****************************************************************************//**
 715:Generated_Source\PSoC6\pdl\drivers/peripheral/gpio/cy_gpio.h **** *
 716:Generated_Source\PSoC6\pdl\drivers/peripheral/gpio/cy_gpio.h **** * Retrieves the port address based on the given port number.
 717:Generated_Source\PSoC6\pdl\drivers/peripheral/gpio/cy_gpio.h **** *
 718:Generated_Source\PSoC6\pdl\drivers/peripheral/gpio/cy_gpio.h **** * This is a helper function to calculate the port base address when given a port
 719:Generated_Source\PSoC6\pdl\drivers/peripheral/gpio/cy_gpio.h **** * number. It is to be used when pin access needs to be calculated at runtime.
 720:Generated_Source\PSoC6\pdl\drivers/peripheral/gpio/cy_gpio.h **** *
 721:Generated_Source\PSoC6\pdl\drivers/peripheral/gpio/cy_gpio.h **** * \param portNum
 722:Generated_Source\PSoC6\pdl\drivers/peripheral/gpio/cy_gpio.h **** * Port number
 723:Generated_Source\PSoC6\pdl\drivers/peripheral/gpio/cy_gpio.h **** *
 724:Generated_Source\PSoC6\pdl\drivers/peripheral/gpio/cy_gpio.h **** * \return
 725:Generated_Source\PSoC6\pdl\drivers/peripheral/gpio/cy_gpio.h **** * Base address of the port register structure
 726:Generated_Source\PSoC6\pdl\drivers/peripheral/gpio/cy_gpio.h **** *
 727:Generated_Source\PSoC6\pdl\drivers/peripheral/gpio/cy_gpio.h **** * \funcusage
 728:Generated_Source\PSoC6\pdl\drivers/peripheral/gpio/cy_gpio.h **** * \snippet gpio/gpio_v1_10_sut_01.cydsn/main_cm4.c snippet_Cy_GPIO_PortToAddr
 729:Generated_Source\PSoC6\pdl\drivers/peripheral/gpio/cy_gpio.h **** *
 730:Generated_Source\PSoC6\pdl\drivers/peripheral/gpio/cy_gpio.h **** *******************************************************************************/
 731:Generated_Source\PSoC6\pdl\drivers/peripheral/gpio/cy_gpio.h **** __STATIC_INLINE GPIO_PRT_Type* Cy_GPIO_PortToAddr(uint32_t portNum)
 732:Generated_Source\PSoC6\pdl\drivers/peripheral/gpio/cy_gpio.h **** {
 733:Generated_Source\PSoC6\pdl\drivers/peripheral/gpio/cy_gpio.h ****     GPIO_PRT_Type* portBase;
 734:Generated_Source\PSoC6\pdl\drivers/peripheral/gpio/cy_gpio.h ****     
 735:Generated_Source\PSoC6\pdl\drivers/peripheral/gpio/cy_gpio.h ****     if(portNum < (uint32_t)IOSS_GPIO_GPIO_PORT_NR)
ARM GAS  C:\Users\maxwe\AppData\Local\Temp\cchGHDkA.s 			page 42


 736:Generated_Source\PSoC6\pdl\drivers/peripheral/gpio/cy_gpio.h ****     {
 737:Generated_Source\PSoC6\pdl\drivers/peripheral/gpio/cy_gpio.h ****         portBase = (GPIO_PRT_Type *)(CY_GPIO_BASE + (GPIO_PRT_SECTION_SIZE * portNum));
 738:Generated_Source\PSoC6\pdl\drivers/peripheral/gpio/cy_gpio.h ****     }
 739:Generated_Source\PSoC6\pdl\drivers/peripheral/gpio/cy_gpio.h ****     else
 740:Generated_Source\PSoC6\pdl\drivers/peripheral/gpio/cy_gpio.h ****     {
 741:Generated_Source\PSoC6\pdl\drivers/peripheral/gpio/cy_gpio.h ****         /* Error: Return default base address */
 742:Generated_Source\PSoC6\pdl\drivers/peripheral/gpio/cy_gpio.h ****         portBase = (GPIO_PRT_Type *)(CY_GPIO_BASE);
 743:Generated_Source\PSoC6\pdl\drivers/peripheral/gpio/cy_gpio.h ****     }
 744:Generated_Source\PSoC6\pdl\drivers/peripheral/gpio/cy_gpio.h **** 
 745:Generated_Source\PSoC6\pdl\drivers/peripheral/gpio/cy_gpio.h ****     return (portBase);
 746:Generated_Source\PSoC6\pdl\drivers/peripheral/gpio/cy_gpio.h **** }
 747:Generated_Source\PSoC6\pdl\drivers/peripheral/gpio/cy_gpio.h **** 
 748:Generated_Source\PSoC6\pdl\drivers/peripheral/gpio/cy_gpio.h **** /** \} group_gpio_functions_init */
 749:Generated_Source\PSoC6\pdl\drivers/peripheral/gpio/cy_gpio.h **** 
 750:Generated_Source\PSoC6\pdl\drivers/peripheral/gpio/cy_gpio.h **** /**
 751:Generated_Source\PSoC6\pdl\drivers/peripheral/gpio/cy_gpio.h **** * \addtogroup group_gpio_functions_gpio
 752:Generated_Source\PSoC6\pdl\drivers/peripheral/gpio/cy_gpio.h **** * \{
 753:Generated_Source\PSoC6\pdl\drivers/peripheral/gpio/cy_gpio.h **** */
 754:Generated_Source\PSoC6\pdl\drivers/peripheral/gpio/cy_gpio.h **** 
 755:Generated_Source\PSoC6\pdl\drivers/peripheral/gpio/cy_gpio.h **** /*******************************************************************************
 756:Generated_Source\PSoC6\pdl\drivers/peripheral/gpio/cy_gpio.h **** * Function Name: Cy_GPIO_Read
 757:Generated_Source\PSoC6\pdl\drivers/peripheral/gpio/cy_gpio.h **** ****************************************************************************//**
 758:Generated_Source\PSoC6\pdl\drivers/peripheral/gpio/cy_gpio.h **** *
 759:Generated_Source\PSoC6\pdl\drivers/peripheral/gpio/cy_gpio.h **** * Reads the current logic level on the input buffer of the pin.
 760:Generated_Source\PSoC6\pdl\drivers/peripheral/gpio/cy_gpio.h **** *
 761:Generated_Source\PSoC6\pdl\drivers/peripheral/gpio/cy_gpio.h **** * \param base
 762:Generated_Source\PSoC6\pdl\drivers/peripheral/gpio/cy_gpio.h **** * Pointer to the pin's port register base address
 763:Generated_Source\PSoC6\pdl\drivers/peripheral/gpio/cy_gpio.h **** *
 764:Generated_Source\PSoC6\pdl\drivers/peripheral/gpio/cy_gpio.h **** * \param pinNum
 765:Generated_Source\PSoC6\pdl\drivers/peripheral/gpio/cy_gpio.h **** * Position of the pin bit-field within the port register.
 766:Generated_Source\PSoC6\pdl\drivers/peripheral/gpio/cy_gpio.h **** * Bit position 8 is the routed pin through the port glitch filter.
 767:Generated_Source\PSoC6\pdl\drivers/peripheral/gpio/cy_gpio.h **** *
 768:Generated_Source\PSoC6\pdl\drivers/peripheral/gpio/cy_gpio.h **** * \return
 769:Generated_Source\PSoC6\pdl\drivers/peripheral/gpio/cy_gpio.h **** * Logic level present on the pin
 770:Generated_Source\PSoC6\pdl\drivers/peripheral/gpio/cy_gpio.h **** *
 771:Generated_Source\PSoC6\pdl\drivers/peripheral/gpio/cy_gpio.h **** * \funcusage
 772:Generated_Source\PSoC6\pdl\drivers/peripheral/gpio/cy_gpio.h **** * \snippet gpio/gpio_v1_10_sut_01.cydsn/main_cm4.c snippet_Cy_GPIO_Read
 773:Generated_Source\PSoC6\pdl\drivers/peripheral/gpio/cy_gpio.h **** *
 774:Generated_Source\PSoC6\pdl\drivers/peripheral/gpio/cy_gpio.h **** *******************************************************************************/
 775:Generated_Source\PSoC6\pdl\drivers/peripheral/gpio/cy_gpio.h **** __STATIC_INLINE uint32_t Cy_GPIO_Read(GPIO_PRT_Type* base, uint32_t pinNum)
 776:Generated_Source\PSoC6\pdl\drivers/peripheral/gpio/cy_gpio.h **** {
 777:Generated_Source\PSoC6\pdl\drivers/peripheral/gpio/cy_gpio.h ****     CY_ASSERT_L2(CY_GPIO_IS_FILTER_PIN_VALID(pinNum));
 778:Generated_Source\PSoC6\pdl\drivers/peripheral/gpio/cy_gpio.h ****     
 779:Generated_Source\PSoC6\pdl\drivers/peripheral/gpio/cy_gpio.h ****     return (GPIO_PRT_IN(base) >> (pinNum)) & CY_GPIO_IN_MASK;
 780:Generated_Source\PSoC6\pdl\drivers/peripheral/gpio/cy_gpio.h **** }
 781:Generated_Source\PSoC6\pdl\drivers/peripheral/gpio/cy_gpio.h **** 
 782:Generated_Source\PSoC6\pdl\drivers/peripheral/gpio/cy_gpio.h **** 
 783:Generated_Source\PSoC6\pdl\drivers/peripheral/gpio/cy_gpio.h **** /*******************************************************************************
 784:Generated_Source\PSoC6\pdl\drivers/peripheral/gpio/cy_gpio.h **** * Function Name: Cy_GPIO_Write
 785:Generated_Source\PSoC6\pdl\drivers/peripheral/gpio/cy_gpio.h **** ****************************************************************************//**
 786:Generated_Source\PSoC6\pdl\drivers/peripheral/gpio/cy_gpio.h **** *
 787:Generated_Source\PSoC6\pdl\drivers/peripheral/gpio/cy_gpio.h **** * Write a logic 0 or logic 1 state to the output driver.
 788:Generated_Source\PSoC6\pdl\drivers/peripheral/gpio/cy_gpio.h **** *
 789:Generated_Source\PSoC6\pdl\drivers/peripheral/gpio/cy_gpio.h **** * This function should be used only for software driven pins. It does not have
 790:Generated_Source\PSoC6\pdl\drivers/peripheral/gpio/cy_gpio.h **** * any effect on peripheral driven pins.
 791:Generated_Source\PSoC6\pdl\drivers/peripheral/gpio/cy_gpio.h **** *
 792:Generated_Source\PSoC6\pdl\drivers/peripheral/gpio/cy_gpio.h **** * \param base
ARM GAS  C:\Users\maxwe\AppData\Local\Temp\cchGHDkA.s 			page 43


 793:Generated_Source\PSoC6\pdl\drivers/peripheral/gpio/cy_gpio.h **** * Pointer to the pin's port register base address
 794:Generated_Source\PSoC6\pdl\drivers/peripheral/gpio/cy_gpio.h **** *
 795:Generated_Source\PSoC6\pdl\drivers/peripheral/gpio/cy_gpio.h **** * \param pinNum
 796:Generated_Source\PSoC6\pdl\drivers/peripheral/gpio/cy_gpio.h **** * Position of the pin bit-field within the port register
 797:Generated_Source\PSoC6\pdl\drivers/peripheral/gpio/cy_gpio.h **** *
 798:Generated_Source\PSoC6\pdl\drivers/peripheral/gpio/cy_gpio.h **** * \param value
 799:Generated_Source\PSoC6\pdl\drivers/peripheral/gpio/cy_gpio.h **** * Logic level to drive out on the pin
 800:Generated_Source\PSoC6\pdl\drivers/peripheral/gpio/cy_gpio.h **** *
 801:Generated_Source\PSoC6\pdl\drivers/peripheral/gpio/cy_gpio.h **** * \funcusage
 802:Generated_Source\PSoC6\pdl\drivers/peripheral/gpio/cy_gpio.h **** * \snippet gpio/gpio_v1_10_sut_01.cydsn/main_cm4.c snippet_Cy_GPIO_Write
 803:Generated_Source\PSoC6\pdl\drivers/peripheral/gpio/cy_gpio.h **** *
 804:Generated_Source\PSoC6\pdl\drivers/peripheral/gpio/cy_gpio.h **** *******************************************************************************/
 805:Generated_Source\PSoC6\pdl\drivers/peripheral/gpio/cy_gpio.h **** __STATIC_INLINE void Cy_GPIO_Write(GPIO_PRT_Type* base, uint32_t pinNum, uint32_t value)
 806:Generated_Source\PSoC6\pdl\drivers/peripheral/gpio/cy_gpio.h **** {
 807:Generated_Source\PSoC6\pdl\drivers/peripheral/gpio/cy_gpio.h ****     CY_ASSERT_L2(CY_GPIO_IS_PIN_VALID(pinNum));
 808:Generated_Source\PSoC6\pdl\drivers/peripheral/gpio/cy_gpio.h ****     CY_ASSERT_L2(CY_GPIO_IS_VALUE_VALID(value));
 809:Generated_Source\PSoC6\pdl\drivers/peripheral/gpio/cy_gpio.h **** 
 810:Generated_Source\PSoC6\pdl\drivers/peripheral/gpio/cy_gpio.h ****     /* Thread-safe: Directly access the pin registers instead of base->OUT */
 811:Generated_Source\PSoC6\pdl\drivers/peripheral/gpio/cy_gpio.h ****     if(0UL == value)
 812:Generated_Source\PSoC6\pdl\drivers/peripheral/gpio/cy_gpio.h ****     {
 813:Generated_Source\PSoC6\pdl\drivers/peripheral/gpio/cy_gpio.h ****         GPIO_PRT_OUT_CLR(base) = CY_GPIO_OUT_MASK << pinNum;
 814:Generated_Source\PSoC6\pdl\drivers/peripheral/gpio/cy_gpio.h ****     }
 815:Generated_Source\PSoC6\pdl\drivers/peripheral/gpio/cy_gpio.h ****     else
 816:Generated_Source\PSoC6\pdl\drivers/peripheral/gpio/cy_gpio.h ****     {
 817:Generated_Source\PSoC6\pdl\drivers/peripheral/gpio/cy_gpio.h ****         GPIO_PRT_OUT_SET(base) = CY_GPIO_OUT_MASK << pinNum;
 372              		.loc 4 817 0
 373 000a B34F     		ldr	r7, .L52+16
 374 000c 4FF04008 		mov	r8, #64
 375 0010 C7F80880 		str	r8, [r7, #8]
 376              	.LVL33:
 377              	.LBE73:
 378              	.LBE72:
 379              	.LBB74:
 380              	.LBB75:
 381 0014 B14C     		ldr	r4, .L52+20
 382 0016 0126     		movs	r6, #1
 383 0018 A660     		str	r6, [r4, #8]
 384              	.LVL34:
 385              	.LBE75:
 386              	.LBE74:
 387              	.LBB76:
 388              	.LBB77:
 389 001a 0225     		movs	r5, #2
 390 001c A560     		str	r5, [r4, #8]
 391              	.LVL35:
 392              	.LBE77:
 393              	.LBE76:
 111:main_cm4.c    ****     CLCD_PutString("Booting") ;
 394              		.loc 1 111 0
 395 001e FFF7FEFF 		bl	go_to_top_line
 396              	.LVL36:
 112:main_cm4.c    ****     go_to_bottom_line();
 397              		.loc 1 112 0
 398 0022 AF48     		ldr	r0, .L52+24
 399 0024 FFF7FEFF 		bl	CLCD_PutString
 400              	.LVL37:
 113:main_cm4.c    ****     CLCD_PutString("Stand By") ;
ARM GAS  C:\Users\maxwe\AppData\Local\Temp\cchGHDkA.s 			page 44


 401              		.loc 1 113 0
 402 0028 FFF7FEFF 		bl	go_to_bottom_line
 403              	.LVL38:
 114:main_cm4.c    ****     CyDelay(1000);
 404              		.loc 1 114 0
 405 002c AD48     		ldr	r0, .L52+28
 406 002e FFF7FEFF 		bl	CLCD_PutString
 407              	.LVL39:
 115:main_cm4.c    ****     
 408              		.loc 1 115 0
 409 0032 4FF47A70 		mov	r0, #1000
 410 0036 FFF7FEFF 		bl	Cy_SysLib_Delay
 411              	.LVL40:
 412              	.LBB78:
 413              	.LBB79:
 813:Generated_Source\PSoC6\pdl\drivers/peripheral/gpio/cy_gpio.h ****     }
 414              		.loc 4 813 0
 415 003a C7F80480 		str	r8, [r7, #4]
 416              	.LVL41:
 417              	.LBE79:
 418              	.LBE78:
 419              	.LBB80:
 420              	.LBB81:
 421 003e 6660     		str	r6, [r4, #4]
 422              	.LVL42:
 423              	.LBE81:
 424              	.LBE80:
 425              	.LBB82:
 426              	.LBB83:
 427 0040 6560     		str	r5, [r4, #4]
 428              	.LVL43:
 429              	.LBE83:
 430              	.LBE82:
 124:main_cm4.c    ****     
 431              		.loc 1 124 0
 432 0042 A94B     		ldr	r3, .L52+32
 433 0044 1868     		ldr	r0, [r3]
 434 0046 0023     		movs	r3, #0
 435 0048 2A46     		mov	r2, r5
 436 004a 1946     		mov	r1, r3
 437 004c 4068     		ldr	r0, [r0, #4]
 438 004e FFF7FEFF 		bl	setvbuf
 439              	.LVL44:
 130:main_cm4.c    ****     
 440              		.loc 1 130 0
 441 0052 FFF7FEFF 		bl	SensorBus_Start
 442              	.LVL45:
 132:main_cm4.c    **** 
 443              		.loc 1 132 0
 444 0056 A54B     		ldr	r3, .L52+36
 445 0058 B3F90030 		ldrsh	r3, [r3]
 446              	.LVL46:
 447              	.LBB84:
 448              	.LBB85:
 449              		.file 5 "Generated_Source\\PSoC6\\pdl\\cmsis/include/core_cm4.h"
   1:Generated_Source\PSoC6\pdl\cmsis/include/core_cm4.h **** /**************************************************************************//**
   2:Generated_Source\PSoC6\pdl\cmsis/include/core_cm4.h ****  * @file     core_cm4.h
ARM GAS  C:\Users\maxwe\AppData\Local\Temp\cchGHDkA.s 			page 45


   3:Generated_Source\PSoC6\pdl\cmsis/include/core_cm4.h ****  * @brief    CMSIS Cortex-M4 Core Peripheral Access Layer Header File
   4:Generated_Source\PSoC6\pdl\cmsis/include/core_cm4.h ****  * @version  V5.0.5
   5:Generated_Source\PSoC6\pdl\cmsis/include/core_cm4.h ****  * @date     08. January 2018
   6:Generated_Source\PSoC6\pdl\cmsis/include/core_cm4.h ****  ******************************************************************************/
   7:Generated_Source\PSoC6\pdl\cmsis/include/core_cm4.h **** /*
   8:Generated_Source\PSoC6\pdl\cmsis/include/core_cm4.h ****  * Copyright (c) 2009-2017 ARM Limited. All rights reserved.
   9:Generated_Source\PSoC6\pdl\cmsis/include/core_cm4.h ****  *
  10:Generated_Source\PSoC6\pdl\cmsis/include/core_cm4.h ****  * SPDX-License-Identifier: Apache-2.0
  11:Generated_Source\PSoC6\pdl\cmsis/include/core_cm4.h ****  *
  12:Generated_Source\PSoC6\pdl\cmsis/include/core_cm4.h ****  * Licensed under the Apache License, Version 2.0 (the License); you may
  13:Generated_Source\PSoC6\pdl\cmsis/include/core_cm4.h ****  * not use this file except in compliance with the License.
  14:Generated_Source\PSoC6\pdl\cmsis/include/core_cm4.h ****  * You may obtain a copy of the License at
  15:Generated_Source\PSoC6\pdl\cmsis/include/core_cm4.h ****  *
  16:Generated_Source\PSoC6\pdl\cmsis/include/core_cm4.h ****  * www.apache.org/licenses/LICENSE-2.0
  17:Generated_Source\PSoC6\pdl\cmsis/include/core_cm4.h ****  *
  18:Generated_Source\PSoC6\pdl\cmsis/include/core_cm4.h ****  * Unless required by applicable law or agreed to in writing, software
  19:Generated_Source\PSoC6\pdl\cmsis/include/core_cm4.h ****  * distributed under the License is distributed on an AS IS BASIS, WITHOUT
  20:Generated_Source\PSoC6\pdl\cmsis/include/core_cm4.h ****  * WARRANTIES OR CONDITIONS OF ANY KIND, either express or implied.
  21:Generated_Source\PSoC6\pdl\cmsis/include/core_cm4.h ****  * See the License for the specific language governing permissions and
  22:Generated_Source\PSoC6\pdl\cmsis/include/core_cm4.h ****  * limitations under the License.
  23:Generated_Source\PSoC6\pdl\cmsis/include/core_cm4.h ****  */
  24:Generated_Source\PSoC6\pdl\cmsis/include/core_cm4.h **** 
  25:Generated_Source\PSoC6\pdl\cmsis/include/core_cm4.h **** #if   defined ( __ICCARM__ )
  26:Generated_Source\PSoC6\pdl\cmsis/include/core_cm4.h ****   #pragma system_include         /* treat file as system include file for MISRA check */
  27:Generated_Source\PSoC6\pdl\cmsis/include/core_cm4.h **** #elif defined (__clang__)
  28:Generated_Source\PSoC6\pdl\cmsis/include/core_cm4.h ****   #pragma clang system_header   /* treat file as system include file */
  29:Generated_Source\PSoC6\pdl\cmsis/include/core_cm4.h **** #endif
  30:Generated_Source\PSoC6\pdl\cmsis/include/core_cm4.h **** 
  31:Generated_Source\PSoC6\pdl\cmsis/include/core_cm4.h **** #ifndef __CORE_CM4_H_GENERIC
  32:Generated_Source\PSoC6\pdl\cmsis/include/core_cm4.h **** #define __CORE_CM4_H_GENERIC
  33:Generated_Source\PSoC6\pdl\cmsis/include/core_cm4.h **** 
  34:Generated_Source\PSoC6\pdl\cmsis/include/core_cm4.h **** #include <stdint.h>
  35:Generated_Source\PSoC6\pdl\cmsis/include/core_cm4.h **** 
  36:Generated_Source\PSoC6\pdl\cmsis/include/core_cm4.h **** #ifdef __cplusplus
  37:Generated_Source\PSoC6\pdl\cmsis/include/core_cm4.h ****  extern "C" {
  38:Generated_Source\PSoC6\pdl\cmsis/include/core_cm4.h **** #endif
  39:Generated_Source\PSoC6\pdl\cmsis/include/core_cm4.h **** 
  40:Generated_Source\PSoC6\pdl\cmsis/include/core_cm4.h **** /**
  41:Generated_Source\PSoC6\pdl\cmsis/include/core_cm4.h ****   \page CMSIS_MISRA_Exceptions  MISRA-C:2004 Compliance Exceptions
  42:Generated_Source\PSoC6\pdl\cmsis/include/core_cm4.h ****   CMSIS violates the following MISRA-C:2004 rules:
  43:Generated_Source\PSoC6\pdl\cmsis/include/core_cm4.h **** 
  44:Generated_Source\PSoC6\pdl\cmsis/include/core_cm4.h ****    \li Required Rule 8.5, object/function definition in header file.<br>
  45:Generated_Source\PSoC6\pdl\cmsis/include/core_cm4.h ****      Function definitions in header files are used to allow 'inlining'.
  46:Generated_Source\PSoC6\pdl\cmsis/include/core_cm4.h **** 
  47:Generated_Source\PSoC6\pdl\cmsis/include/core_cm4.h ****    \li Required Rule 18.4, declaration of union type or object of union type: '{...}'.<br>
  48:Generated_Source\PSoC6\pdl\cmsis/include/core_cm4.h ****      Unions are used for effective representation of core registers.
  49:Generated_Source\PSoC6\pdl\cmsis/include/core_cm4.h **** 
  50:Generated_Source\PSoC6\pdl\cmsis/include/core_cm4.h ****    \li Advisory Rule 19.7, Function-like macro defined.<br>
  51:Generated_Source\PSoC6\pdl\cmsis/include/core_cm4.h ****      Function-like macros are used to allow more efficient code.
  52:Generated_Source\PSoC6\pdl\cmsis/include/core_cm4.h ****  */
  53:Generated_Source\PSoC6\pdl\cmsis/include/core_cm4.h **** 
  54:Generated_Source\PSoC6\pdl\cmsis/include/core_cm4.h **** 
  55:Generated_Source\PSoC6\pdl\cmsis/include/core_cm4.h **** /*******************************************************************************
  56:Generated_Source\PSoC6\pdl\cmsis/include/core_cm4.h ****  *                 CMSIS definitions
  57:Generated_Source\PSoC6\pdl\cmsis/include/core_cm4.h ****  ******************************************************************************/
  58:Generated_Source\PSoC6\pdl\cmsis/include/core_cm4.h **** /**
  59:Generated_Source\PSoC6\pdl\cmsis/include/core_cm4.h ****   \ingroup Cortex_M4
ARM GAS  C:\Users\maxwe\AppData\Local\Temp\cchGHDkA.s 			page 46


  60:Generated_Source\PSoC6\pdl\cmsis/include/core_cm4.h ****   @{
  61:Generated_Source\PSoC6\pdl\cmsis/include/core_cm4.h ****  */
  62:Generated_Source\PSoC6\pdl\cmsis/include/core_cm4.h **** 
  63:Generated_Source\PSoC6\pdl\cmsis/include/core_cm4.h **** #include "cmsis_version.h"
  64:Generated_Source\PSoC6\pdl\cmsis/include/core_cm4.h ****  
  65:Generated_Source\PSoC6\pdl\cmsis/include/core_cm4.h **** /* CMSIS CM4 definitions */
  66:Generated_Source\PSoC6\pdl\cmsis/include/core_cm4.h **** #define __CM4_CMSIS_VERSION_MAIN  (__CM_CMSIS_VERSION_MAIN)              /*!< \deprecated [31:16] C
  67:Generated_Source\PSoC6\pdl\cmsis/include/core_cm4.h **** #define __CM4_CMSIS_VERSION_SUB   (__CM_CMSIS_VERSION_SUB)               /*!< \deprecated [15:0]  C
  68:Generated_Source\PSoC6\pdl\cmsis/include/core_cm4.h **** #define __CM4_CMSIS_VERSION       ((__CM4_CMSIS_VERSION_MAIN << 16U) | \
  69:Generated_Source\PSoC6\pdl\cmsis/include/core_cm4.h ****                                     __CM4_CMSIS_VERSION_SUB           )  /*!< \deprecated CMSIS HAL
  70:Generated_Source\PSoC6\pdl\cmsis/include/core_cm4.h **** 
  71:Generated_Source\PSoC6\pdl\cmsis/include/core_cm4.h **** #define __CORTEX_M                (4U)                                   /*!< Cortex-M Core */
  72:Generated_Source\PSoC6\pdl\cmsis/include/core_cm4.h **** 
  73:Generated_Source\PSoC6\pdl\cmsis/include/core_cm4.h **** /** __FPU_USED indicates whether an FPU is used or not.
  74:Generated_Source\PSoC6\pdl\cmsis/include/core_cm4.h ****     For this, __FPU_PRESENT has to be checked prior to making use of FPU specific registers and fun
  75:Generated_Source\PSoC6\pdl\cmsis/include/core_cm4.h **** */
  76:Generated_Source\PSoC6\pdl\cmsis/include/core_cm4.h **** #if defined ( __CC_ARM )
  77:Generated_Source\PSoC6\pdl\cmsis/include/core_cm4.h ****   #if defined __TARGET_FPU_VFP
  78:Generated_Source\PSoC6\pdl\cmsis/include/core_cm4.h ****     #if defined (__FPU_PRESENT) && (__FPU_PRESENT == 1U)
  79:Generated_Source\PSoC6\pdl\cmsis/include/core_cm4.h ****       #define __FPU_USED       1U
  80:Generated_Source\PSoC6\pdl\cmsis/include/core_cm4.h ****     #else
  81:Generated_Source\PSoC6\pdl\cmsis/include/core_cm4.h ****       #error "Compiler generates FPU instructions for a device without an FPU (check __FPU_PRESENT)
  82:Generated_Source\PSoC6\pdl\cmsis/include/core_cm4.h ****       #define __FPU_USED       0U
  83:Generated_Source\PSoC6\pdl\cmsis/include/core_cm4.h ****     #endif
  84:Generated_Source\PSoC6\pdl\cmsis/include/core_cm4.h ****   #else
  85:Generated_Source\PSoC6\pdl\cmsis/include/core_cm4.h ****     #define __FPU_USED         0U
  86:Generated_Source\PSoC6\pdl\cmsis/include/core_cm4.h ****   #endif
  87:Generated_Source\PSoC6\pdl\cmsis/include/core_cm4.h **** 
  88:Generated_Source\PSoC6\pdl\cmsis/include/core_cm4.h **** #elif defined (__ARMCC_VERSION) && (__ARMCC_VERSION >= 6010050)
  89:Generated_Source\PSoC6\pdl\cmsis/include/core_cm4.h ****   #if defined __ARM_PCS_VFP
  90:Generated_Source\PSoC6\pdl\cmsis/include/core_cm4.h ****     #if defined (__FPU_PRESENT) && (__FPU_PRESENT == 1U)
  91:Generated_Source\PSoC6\pdl\cmsis/include/core_cm4.h ****       #define __FPU_USED       1U
  92:Generated_Source\PSoC6\pdl\cmsis/include/core_cm4.h ****     #else
  93:Generated_Source\PSoC6\pdl\cmsis/include/core_cm4.h ****       #warning "Compiler generates FPU instructions for a device without an FPU (check __FPU_PRESEN
  94:Generated_Source\PSoC6\pdl\cmsis/include/core_cm4.h ****       #define __FPU_USED       0U
  95:Generated_Source\PSoC6\pdl\cmsis/include/core_cm4.h ****     #endif
  96:Generated_Source\PSoC6\pdl\cmsis/include/core_cm4.h ****   #else
  97:Generated_Source\PSoC6\pdl\cmsis/include/core_cm4.h ****     #define __FPU_USED         0U
  98:Generated_Source\PSoC6\pdl\cmsis/include/core_cm4.h ****   #endif
  99:Generated_Source\PSoC6\pdl\cmsis/include/core_cm4.h **** 
 100:Generated_Source\PSoC6\pdl\cmsis/include/core_cm4.h **** #elif defined ( __GNUC__ )
 101:Generated_Source\PSoC6\pdl\cmsis/include/core_cm4.h ****   #if defined (__VFP_FP__) && !defined(__SOFTFP__)
 102:Generated_Source\PSoC6\pdl\cmsis/include/core_cm4.h ****     #if defined (__FPU_PRESENT) && (__FPU_PRESENT == 1U)
 103:Generated_Source\PSoC6\pdl\cmsis/include/core_cm4.h ****       #define __FPU_USED       1U
 104:Generated_Source\PSoC6\pdl\cmsis/include/core_cm4.h ****     #else
 105:Generated_Source\PSoC6\pdl\cmsis/include/core_cm4.h ****       #error "Compiler generates FPU instructions for a device without an FPU (check __FPU_PRESENT)
 106:Generated_Source\PSoC6\pdl\cmsis/include/core_cm4.h ****       #define __FPU_USED       0U
 107:Generated_Source\PSoC6\pdl\cmsis/include/core_cm4.h ****     #endif
 108:Generated_Source\PSoC6\pdl\cmsis/include/core_cm4.h ****   #else
 109:Generated_Source\PSoC6\pdl\cmsis/include/core_cm4.h ****     #define __FPU_USED         0U
 110:Generated_Source\PSoC6\pdl\cmsis/include/core_cm4.h ****   #endif
 111:Generated_Source\PSoC6\pdl\cmsis/include/core_cm4.h **** 
 112:Generated_Source\PSoC6\pdl\cmsis/include/core_cm4.h **** #elif defined ( __ICCARM__ )
 113:Generated_Source\PSoC6\pdl\cmsis/include/core_cm4.h ****   #if defined __ARMVFP__
 114:Generated_Source\PSoC6\pdl\cmsis/include/core_cm4.h ****     #if defined (__FPU_PRESENT) && (__FPU_PRESENT == 1U)
 115:Generated_Source\PSoC6\pdl\cmsis/include/core_cm4.h ****       #define __FPU_USED       1U
 116:Generated_Source\PSoC6\pdl\cmsis/include/core_cm4.h ****     #else
ARM GAS  C:\Users\maxwe\AppData\Local\Temp\cchGHDkA.s 			page 47


 117:Generated_Source\PSoC6\pdl\cmsis/include/core_cm4.h ****       #error "Compiler generates FPU instructions for a device without an FPU (check __FPU_PRESENT)
 118:Generated_Source\PSoC6\pdl\cmsis/include/core_cm4.h ****       #define __FPU_USED       0U
 119:Generated_Source\PSoC6\pdl\cmsis/include/core_cm4.h ****     #endif
 120:Generated_Source\PSoC6\pdl\cmsis/include/core_cm4.h ****   #else
 121:Generated_Source\PSoC6\pdl\cmsis/include/core_cm4.h ****     #define __FPU_USED         0U
 122:Generated_Source\PSoC6\pdl\cmsis/include/core_cm4.h ****   #endif
 123:Generated_Source\PSoC6\pdl\cmsis/include/core_cm4.h **** 
 124:Generated_Source\PSoC6\pdl\cmsis/include/core_cm4.h **** #elif defined ( __TI_ARM__ )
 125:Generated_Source\PSoC6\pdl\cmsis/include/core_cm4.h ****   #if defined __TI_VFP_SUPPORT__
 126:Generated_Source\PSoC6\pdl\cmsis/include/core_cm4.h ****     #if defined (__FPU_PRESENT) && (__FPU_PRESENT == 1U)
 127:Generated_Source\PSoC6\pdl\cmsis/include/core_cm4.h ****       #define __FPU_USED       1U
 128:Generated_Source\PSoC6\pdl\cmsis/include/core_cm4.h ****     #else
 129:Generated_Source\PSoC6\pdl\cmsis/include/core_cm4.h ****       #error "Compiler generates FPU instructions for a device without an FPU (check __FPU_PRESENT)
 130:Generated_Source\PSoC6\pdl\cmsis/include/core_cm4.h ****       #define __FPU_USED       0U
 131:Generated_Source\PSoC6\pdl\cmsis/include/core_cm4.h ****     #endif
 132:Generated_Source\PSoC6\pdl\cmsis/include/core_cm4.h ****   #else
 133:Generated_Source\PSoC6\pdl\cmsis/include/core_cm4.h ****     #define __FPU_USED         0U
 134:Generated_Source\PSoC6\pdl\cmsis/include/core_cm4.h ****   #endif
 135:Generated_Source\PSoC6\pdl\cmsis/include/core_cm4.h **** 
 136:Generated_Source\PSoC6\pdl\cmsis/include/core_cm4.h **** #elif defined ( __TASKING__ )
 137:Generated_Source\PSoC6\pdl\cmsis/include/core_cm4.h ****   #if defined __FPU_VFP__
 138:Generated_Source\PSoC6\pdl\cmsis/include/core_cm4.h ****     #if defined (__FPU_PRESENT) && (__FPU_PRESENT == 1U)
 139:Generated_Source\PSoC6\pdl\cmsis/include/core_cm4.h ****       #define __FPU_USED       1U
 140:Generated_Source\PSoC6\pdl\cmsis/include/core_cm4.h ****     #else
 141:Generated_Source\PSoC6\pdl\cmsis/include/core_cm4.h ****       #error "Compiler generates FPU instructions for a device without an FPU (check __FPU_PRESENT)
 142:Generated_Source\PSoC6\pdl\cmsis/include/core_cm4.h ****       #define __FPU_USED       0U
 143:Generated_Source\PSoC6\pdl\cmsis/include/core_cm4.h ****     #endif
 144:Generated_Source\PSoC6\pdl\cmsis/include/core_cm4.h ****   #else
 145:Generated_Source\PSoC6\pdl\cmsis/include/core_cm4.h ****     #define __FPU_USED         0U
 146:Generated_Source\PSoC6\pdl\cmsis/include/core_cm4.h ****   #endif
 147:Generated_Source\PSoC6\pdl\cmsis/include/core_cm4.h **** 
 148:Generated_Source\PSoC6\pdl\cmsis/include/core_cm4.h **** #elif defined ( __CSMC__ )
 149:Generated_Source\PSoC6\pdl\cmsis/include/core_cm4.h ****   #if ( __CSMC__ & 0x400U)
 150:Generated_Source\PSoC6\pdl\cmsis/include/core_cm4.h ****     #if defined (__FPU_PRESENT) && (__FPU_PRESENT == 1U)
 151:Generated_Source\PSoC6\pdl\cmsis/include/core_cm4.h ****       #define __FPU_USED       1U
 152:Generated_Source\PSoC6\pdl\cmsis/include/core_cm4.h ****     #else
 153:Generated_Source\PSoC6\pdl\cmsis/include/core_cm4.h ****       #error "Compiler generates FPU instructions for a device without an FPU (check __FPU_PRESENT)
 154:Generated_Source\PSoC6\pdl\cmsis/include/core_cm4.h ****       #define __FPU_USED       0U
 155:Generated_Source\PSoC6\pdl\cmsis/include/core_cm4.h ****     #endif
 156:Generated_Source\PSoC6\pdl\cmsis/include/core_cm4.h ****   #else
 157:Generated_Source\PSoC6\pdl\cmsis/include/core_cm4.h ****     #define __FPU_USED         0U
 158:Generated_Source\PSoC6\pdl\cmsis/include/core_cm4.h ****   #endif
 159:Generated_Source\PSoC6\pdl\cmsis/include/core_cm4.h **** 
 160:Generated_Source\PSoC6\pdl\cmsis/include/core_cm4.h **** #endif
 161:Generated_Source\PSoC6\pdl\cmsis/include/core_cm4.h **** 
 162:Generated_Source\PSoC6\pdl\cmsis/include/core_cm4.h **** #include "cmsis_compiler.h"               /* CMSIS compiler specific defines */
 163:Generated_Source\PSoC6\pdl\cmsis/include/core_cm4.h **** 
 164:Generated_Source\PSoC6\pdl\cmsis/include/core_cm4.h **** 
 165:Generated_Source\PSoC6\pdl\cmsis/include/core_cm4.h **** #ifdef __cplusplus
 166:Generated_Source\PSoC6\pdl\cmsis/include/core_cm4.h **** }
 167:Generated_Source\PSoC6\pdl\cmsis/include/core_cm4.h **** #endif
 168:Generated_Source\PSoC6\pdl\cmsis/include/core_cm4.h **** 
 169:Generated_Source\PSoC6\pdl\cmsis/include/core_cm4.h **** #endif /* __CORE_CM4_H_GENERIC */
 170:Generated_Source\PSoC6\pdl\cmsis/include/core_cm4.h **** 
 171:Generated_Source\PSoC6\pdl\cmsis/include/core_cm4.h **** #ifndef __CMSIS_GENERIC
 172:Generated_Source\PSoC6\pdl\cmsis/include/core_cm4.h **** 
 173:Generated_Source\PSoC6\pdl\cmsis/include/core_cm4.h **** #ifndef __CORE_CM4_H_DEPENDANT
ARM GAS  C:\Users\maxwe\AppData\Local\Temp\cchGHDkA.s 			page 48


 174:Generated_Source\PSoC6\pdl\cmsis/include/core_cm4.h **** #define __CORE_CM4_H_DEPENDANT
 175:Generated_Source\PSoC6\pdl\cmsis/include/core_cm4.h **** 
 176:Generated_Source\PSoC6\pdl\cmsis/include/core_cm4.h **** #ifdef __cplusplus
 177:Generated_Source\PSoC6\pdl\cmsis/include/core_cm4.h ****  extern "C" {
 178:Generated_Source\PSoC6\pdl\cmsis/include/core_cm4.h **** #endif
 179:Generated_Source\PSoC6\pdl\cmsis/include/core_cm4.h **** 
 180:Generated_Source\PSoC6\pdl\cmsis/include/core_cm4.h **** /* check device defines and use defaults */
 181:Generated_Source\PSoC6\pdl\cmsis/include/core_cm4.h **** #if defined __CHECK_DEVICE_DEFINES
 182:Generated_Source\PSoC6\pdl\cmsis/include/core_cm4.h ****   #ifndef __CM4_REV
 183:Generated_Source\PSoC6\pdl\cmsis/include/core_cm4.h ****     #define __CM4_REV               0x0000U
 184:Generated_Source\PSoC6\pdl\cmsis/include/core_cm4.h ****     #warning "__CM4_REV not defined in device header file; using default!"
 185:Generated_Source\PSoC6\pdl\cmsis/include/core_cm4.h ****   #endif
 186:Generated_Source\PSoC6\pdl\cmsis/include/core_cm4.h **** 
 187:Generated_Source\PSoC6\pdl\cmsis/include/core_cm4.h ****   #ifndef __FPU_PRESENT
 188:Generated_Source\PSoC6\pdl\cmsis/include/core_cm4.h ****     #define __FPU_PRESENT             0U
 189:Generated_Source\PSoC6\pdl\cmsis/include/core_cm4.h ****     #warning "__FPU_PRESENT not defined in device header file; using default!"
 190:Generated_Source\PSoC6\pdl\cmsis/include/core_cm4.h ****   #endif
 191:Generated_Source\PSoC6\pdl\cmsis/include/core_cm4.h **** 
 192:Generated_Source\PSoC6\pdl\cmsis/include/core_cm4.h ****   #ifndef __MPU_PRESENT
 193:Generated_Source\PSoC6\pdl\cmsis/include/core_cm4.h ****     #define __MPU_PRESENT             0U
 194:Generated_Source\PSoC6\pdl\cmsis/include/core_cm4.h ****     #warning "__MPU_PRESENT not defined in device header file; using default!"
 195:Generated_Source\PSoC6\pdl\cmsis/include/core_cm4.h ****   #endif
 196:Generated_Source\PSoC6\pdl\cmsis/include/core_cm4.h **** 
 197:Generated_Source\PSoC6\pdl\cmsis/include/core_cm4.h ****   #ifndef __NVIC_PRIO_BITS
 198:Generated_Source\PSoC6\pdl\cmsis/include/core_cm4.h ****     #define __NVIC_PRIO_BITS          3U
 199:Generated_Source\PSoC6\pdl\cmsis/include/core_cm4.h ****     #warning "__NVIC_PRIO_BITS not defined in device header file; using default!"
 200:Generated_Source\PSoC6\pdl\cmsis/include/core_cm4.h ****   #endif
 201:Generated_Source\PSoC6\pdl\cmsis/include/core_cm4.h **** 
 202:Generated_Source\PSoC6\pdl\cmsis/include/core_cm4.h ****   #ifndef __Vendor_SysTickConfig
 203:Generated_Source\PSoC6\pdl\cmsis/include/core_cm4.h ****     #define __Vendor_SysTickConfig    0U
 204:Generated_Source\PSoC6\pdl\cmsis/include/core_cm4.h ****     #warning "__Vendor_SysTickConfig not defined in device header file; using default!"
 205:Generated_Source\PSoC6\pdl\cmsis/include/core_cm4.h ****   #endif
 206:Generated_Source\PSoC6\pdl\cmsis/include/core_cm4.h **** #endif
 207:Generated_Source\PSoC6\pdl\cmsis/include/core_cm4.h **** 
 208:Generated_Source\PSoC6\pdl\cmsis/include/core_cm4.h **** /* IO definitions (access restrictions to peripheral registers) */
 209:Generated_Source\PSoC6\pdl\cmsis/include/core_cm4.h **** /**
 210:Generated_Source\PSoC6\pdl\cmsis/include/core_cm4.h ****     \defgroup CMSIS_glob_defs CMSIS Global Defines
 211:Generated_Source\PSoC6\pdl\cmsis/include/core_cm4.h **** 
 212:Generated_Source\PSoC6\pdl\cmsis/include/core_cm4.h ****     <strong>IO Type Qualifiers</strong> are used
 213:Generated_Source\PSoC6\pdl\cmsis/include/core_cm4.h ****     \li to specify the access to peripheral variables.
 214:Generated_Source\PSoC6\pdl\cmsis/include/core_cm4.h ****     \li for automatic generation of peripheral register debug information.
 215:Generated_Source\PSoC6\pdl\cmsis/include/core_cm4.h **** */
 216:Generated_Source\PSoC6\pdl\cmsis/include/core_cm4.h **** #ifdef __cplusplus
 217:Generated_Source\PSoC6\pdl\cmsis/include/core_cm4.h ****   #define   __I     volatile             /*!< Defines 'read only' permissions */
 218:Generated_Source\PSoC6\pdl\cmsis/include/core_cm4.h **** #else
 219:Generated_Source\PSoC6\pdl\cmsis/include/core_cm4.h ****   #define   __I     volatile const       /*!< Defines 'read only' permissions */
 220:Generated_Source\PSoC6\pdl\cmsis/include/core_cm4.h **** #endif
 221:Generated_Source\PSoC6\pdl\cmsis/include/core_cm4.h **** #define     __O     volatile             /*!< Defines 'write only' permissions */
 222:Generated_Source\PSoC6\pdl\cmsis/include/core_cm4.h **** #define     __IO    volatile             /*!< Defines 'read / write' permissions */
 223:Generated_Source\PSoC6\pdl\cmsis/include/core_cm4.h **** 
 224:Generated_Source\PSoC6\pdl\cmsis/include/core_cm4.h **** /* following defines should be used for structure members */
 225:Generated_Source\PSoC6\pdl\cmsis/include/core_cm4.h **** #define     __IM     volatile const      /*! Defines 'read only' structure member permissions */
 226:Generated_Source\PSoC6\pdl\cmsis/include/core_cm4.h **** #define     __OM     volatile            /*! Defines 'write only' structure member permissions */
 227:Generated_Source\PSoC6\pdl\cmsis/include/core_cm4.h **** #define     __IOM    volatile            /*! Defines 'read / write' structure member permissions */
 228:Generated_Source\PSoC6\pdl\cmsis/include/core_cm4.h **** 
 229:Generated_Source\PSoC6\pdl\cmsis/include/core_cm4.h **** /*@} end of group Cortex_M4 */
 230:Generated_Source\PSoC6\pdl\cmsis/include/core_cm4.h **** 
ARM GAS  C:\Users\maxwe\AppData\Local\Temp\cchGHDkA.s 			page 49


 231:Generated_Source\PSoC6\pdl\cmsis/include/core_cm4.h **** 
 232:Generated_Source\PSoC6\pdl\cmsis/include/core_cm4.h **** 
 233:Generated_Source\PSoC6\pdl\cmsis/include/core_cm4.h **** /*******************************************************************************
 234:Generated_Source\PSoC6\pdl\cmsis/include/core_cm4.h ****  *                 Register Abstraction
 235:Generated_Source\PSoC6\pdl\cmsis/include/core_cm4.h ****   Core Register contain:
 236:Generated_Source\PSoC6\pdl\cmsis/include/core_cm4.h ****   - Core Register
 237:Generated_Source\PSoC6\pdl\cmsis/include/core_cm4.h ****   - Core NVIC Register
 238:Generated_Source\PSoC6\pdl\cmsis/include/core_cm4.h ****   - Core SCB Register
 239:Generated_Source\PSoC6\pdl\cmsis/include/core_cm4.h ****   - Core SysTick Register
 240:Generated_Source\PSoC6\pdl\cmsis/include/core_cm4.h ****   - Core Debug Register
 241:Generated_Source\PSoC6\pdl\cmsis/include/core_cm4.h ****   - Core MPU Register
 242:Generated_Source\PSoC6\pdl\cmsis/include/core_cm4.h ****   - Core FPU Register
 243:Generated_Source\PSoC6\pdl\cmsis/include/core_cm4.h ****  ******************************************************************************/
 244:Generated_Source\PSoC6\pdl\cmsis/include/core_cm4.h **** /**
 245:Generated_Source\PSoC6\pdl\cmsis/include/core_cm4.h ****   \defgroup CMSIS_core_register Defines and Type Definitions
 246:Generated_Source\PSoC6\pdl\cmsis/include/core_cm4.h ****   \brief Type definitions and defines for Cortex-M processor based devices.
 247:Generated_Source\PSoC6\pdl\cmsis/include/core_cm4.h **** */
 248:Generated_Source\PSoC6\pdl\cmsis/include/core_cm4.h **** 
 249:Generated_Source\PSoC6\pdl\cmsis/include/core_cm4.h **** /**
 250:Generated_Source\PSoC6\pdl\cmsis/include/core_cm4.h ****   \ingroup    CMSIS_core_register
 251:Generated_Source\PSoC6\pdl\cmsis/include/core_cm4.h ****   \defgroup   CMSIS_CORE  Status and Control Registers
 252:Generated_Source\PSoC6\pdl\cmsis/include/core_cm4.h ****   \brief      Core Register type definitions.
 253:Generated_Source\PSoC6\pdl\cmsis/include/core_cm4.h ****   @{
 254:Generated_Source\PSoC6\pdl\cmsis/include/core_cm4.h ****  */
 255:Generated_Source\PSoC6\pdl\cmsis/include/core_cm4.h **** 
 256:Generated_Source\PSoC6\pdl\cmsis/include/core_cm4.h **** /**
 257:Generated_Source\PSoC6\pdl\cmsis/include/core_cm4.h ****   \brief  Union type to access the Application Program Status Register (APSR).
 258:Generated_Source\PSoC6\pdl\cmsis/include/core_cm4.h ****  */
 259:Generated_Source\PSoC6\pdl\cmsis/include/core_cm4.h **** typedef union
 260:Generated_Source\PSoC6\pdl\cmsis/include/core_cm4.h **** {
 261:Generated_Source\PSoC6\pdl\cmsis/include/core_cm4.h ****   struct
 262:Generated_Source\PSoC6\pdl\cmsis/include/core_cm4.h ****   {
 263:Generated_Source\PSoC6\pdl\cmsis/include/core_cm4.h ****     uint32_t _reserved0:16;              /*!< bit:  0..15  Reserved */
 264:Generated_Source\PSoC6\pdl\cmsis/include/core_cm4.h ****     uint32_t GE:4;                       /*!< bit: 16..19  Greater than or Equal flags */
 265:Generated_Source\PSoC6\pdl\cmsis/include/core_cm4.h ****     uint32_t _reserved1:7;               /*!< bit: 20..26  Reserved */
 266:Generated_Source\PSoC6\pdl\cmsis/include/core_cm4.h ****     uint32_t Q:1;                        /*!< bit:     27  Saturation condition flag */
 267:Generated_Source\PSoC6\pdl\cmsis/include/core_cm4.h ****     uint32_t V:1;                        /*!< bit:     28  Overflow condition code flag */
 268:Generated_Source\PSoC6\pdl\cmsis/include/core_cm4.h ****     uint32_t C:1;                        /*!< bit:     29  Carry condition code flag */
 269:Generated_Source\PSoC6\pdl\cmsis/include/core_cm4.h ****     uint32_t Z:1;                        /*!< bit:     30  Zero condition code flag */
 270:Generated_Source\PSoC6\pdl\cmsis/include/core_cm4.h ****     uint32_t N:1;                        /*!< bit:     31  Negative condition code flag */
 271:Generated_Source\PSoC6\pdl\cmsis/include/core_cm4.h ****   } b;                                   /*!< Structure used for bit  access */
 272:Generated_Source\PSoC6\pdl\cmsis/include/core_cm4.h ****   uint32_t w;                            /*!< Type      used for word access */
 273:Generated_Source\PSoC6\pdl\cmsis/include/core_cm4.h **** } APSR_Type;
 274:Generated_Source\PSoC6\pdl\cmsis/include/core_cm4.h **** 
 275:Generated_Source\PSoC6\pdl\cmsis/include/core_cm4.h **** /* APSR Register Definitions */
 276:Generated_Source\PSoC6\pdl\cmsis/include/core_cm4.h **** #define APSR_N_Pos                         31U                                            /*!< APSR
 277:Generated_Source\PSoC6\pdl\cmsis/include/core_cm4.h **** #define APSR_N_Msk                         (1UL << APSR_N_Pos)                            /*!< APSR
 278:Generated_Source\PSoC6\pdl\cmsis/include/core_cm4.h **** 
 279:Generated_Source\PSoC6\pdl\cmsis/include/core_cm4.h **** #define APSR_Z_Pos                         30U                                            /*!< APSR
 280:Generated_Source\PSoC6\pdl\cmsis/include/core_cm4.h **** #define APSR_Z_Msk                         (1UL << APSR_Z_Pos)                            /*!< APSR
 281:Generated_Source\PSoC6\pdl\cmsis/include/core_cm4.h **** 
 282:Generated_Source\PSoC6\pdl\cmsis/include/core_cm4.h **** #define APSR_C_Pos                         29U                                            /*!< APSR
 283:Generated_Source\PSoC6\pdl\cmsis/include/core_cm4.h **** #define APSR_C_Msk                         (1UL << APSR_C_Pos)                            /*!< APSR
 284:Generated_Source\PSoC6\pdl\cmsis/include/core_cm4.h **** 
 285:Generated_Source\PSoC6\pdl\cmsis/include/core_cm4.h **** #define APSR_V_Pos                         28U                                            /*!< APSR
 286:Generated_Source\PSoC6\pdl\cmsis/include/core_cm4.h **** #define APSR_V_Msk                         (1UL << APSR_V_Pos)                            /*!< APSR
 287:Generated_Source\PSoC6\pdl\cmsis/include/core_cm4.h **** 
ARM GAS  C:\Users\maxwe\AppData\Local\Temp\cchGHDkA.s 			page 50


 288:Generated_Source\PSoC6\pdl\cmsis/include/core_cm4.h **** #define APSR_Q_Pos                         27U                                            /*!< APSR
 289:Generated_Source\PSoC6\pdl\cmsis/include/core_cm4.h **** #define APSR_Q_Msk                         (1UL << APSR_Q_Pos)                            /*!< APSR
 290:Generated_Source\PSoC6\pdl\cmsis/include/core_cm4.h **** 
 291:Generated_Source\PSoC6\pdl\cmsis/include/core_cm4.h **** #define APSR_GE_Pos                        16U                                            /*!< APSR
 292:Generated_Source\PSoC6\pdl\cmsis/include/core_cm4.h **** #define APSR_GE_Msk                        (0xFUL << APSR_GE_Pos)                         /*!< APSR
 293:Generated_Source\PSoC6\pdl\cmsis/include/core_cm4.h **** 
 294:Generated_Source\PSoC6\pdl\cmsis/include/core_cm4.h **** 
 295:Generated_Source\PSoC6\pdl\cmsis/include/core_cm4.h **** /**
 296:Generated_Source\PSoC6\pdl\cmsis/include/core_cm4.h ****   \brief  Union type to access the Interrupt Program Status Register (IPSR).
 297:Generated_Source\PSoC6\pdl\cmsis/include/core_cm4.h ****  */
 298:Generated_Source\PSoC6\pdl\cmsis/include/core_cm4.h **** typedef union
 299:Generated_Source\PSoC6\pdl\cmsis/include/core_cm4.h **** {
 300:Generated_Source\PSoC6\pdl\cmsis/include/core_cm4.h ****   struct
 301:Generated_Source\PSoC6\pdl\cmsis/include/core_cm4.h ****   {
 302:Generated_Source\PSoC6\pdl\cmsis/include/core_cm4.h ****     uint32_t ISR:9;                      /*!< bit:  0.. 8  Exception number */
 303:Generated_Source\PSoC6\pdl\cmsis/include/core_cm4.h ****     uint32_t _reserved0:23;              /*!< bit:  9..31  Reserved */
 304:Generated_Source\PSoC6\pdl\cmsis/include/core_cm4.h ****   } b;                                   /*!< Structure used for bit  access */
 305:Generated_Source\PSoC6\pdl\cmsis/include/core_cm4.h ****   uint32_t w;                            /*!< Type      used for word access */
 306:Generated_Source\PSoC6\pdl\cmsis/include/core_cm4.h **** } IPSR_Type;
 307:Generated_Source\PSoC6\pdl\cmsis/include/core_cm4.h **** 
 308:Generated_Source\PSoC6\pdl\cmsis/include/core_cm4.h **** /* IPSR Register Definitions */
 309:Generated_Source\PSoC6\pdl\cmsis/include/core_cm4.h **** #define IPSR_ISR_Pos                        0U                                            /*!< IPSR
 310:Generated_Source\PSoC6\pdl\cmsis/include/core_cm4.h **** #define IPSR_ISR_Msk                       (0x1FFUL /*<< IPSR_ISR_Pos*/)                  /*!< IPSR
 311:Generated_Source\PSoC6\pdl\cmsis/include/core_cm4.h **** 
 312:Generated_Source\PSoC6\pdl\cmsis/include/core_cm4.h **** 
 313:Generated_Source\PSoC6\pdl\cmsis/include/core_cm4.h **** /**
 314:Generated_Source\PSoC6\pdl\cmsis/include/core_cm4.h ****   \brief  Union type to access the Special-Purpose Program Status Registers (xPSR).
 315:Generated_Source\PSoC6\pdl\cmsis/include/core_cm4.h ****  */
 316:Generated_Source\PSoC6\pdl\cmsis/include/core_cm4.h **** typedef union
 317:Generated_Source\PSoC6\pdl\cmsis/include/core_cm4.h **** {
 318:Generated_Source\PSoC6\pdl\cmsis/include/core_cm4.h ****   struct
 319:Generated_Source\PSoC6\pdl\cmsis/include/core_cm4.h ****   {
 320:Generated_Source\PSoC6\pdl\cmsis/include/core_cm4.h ****     uint32_t ISR:9;                      /*!< bit:  0.. 8  Exception number */
 321:Generated_Source\PSoC6\pdl\cmsis/include/core_cm4.h ****     uint32_t _reserved0:1;               /*!< bit:      9  Reserved */
 322:Generated_Source\PSoC6\pdl\cmsis/include/core_cm4.h ****     uint32_t ICI_IT_1:6;                 /*!< bit: 10..15  ICI/IT part 1 */
 323:Generated_Source\PSoC6\pdl\cmsis/include/core_cm4.h ****     uint32_t GE:4;                       /*!< bit: 16..19  Greater than or Equal flags */
 324:Generated_Source\PSoC6\pdl\cmsis/include/core_cm4.h ****     uint32_t _reserved1:4;               /*!< bit: 20..23  Reserved */
 325:Generated_Source\PSoC6\pdl\cmsis/include/core_cm4.h ****     uint32_t T:1;                        /*!< bit:     24  Thumb bit */
 326:Generated_Source\PSoC6\pdl\cmsis/include/core_cm4.h ****     uint32_t ICI_IT_2:2;                 /*!< bit: 25..26  ICI/IT part 2 */
 327:Generated_Source\PSoC6\pdl\cmsis/include/core_cm4.h ****     uint32_t Q:1;                        /*!< bit:     27  Saturation condition flag */
 328:Generated_Source\PSoC6\pdl\cmsis/include/core_cm4.h ****     uint32_t V:1;                        /*!< bit:     28  Overflow condition code flag */
 329:Generated_Source\PSoC6\pdl\cmsis/include/core_cm4.h ****     uint32_t C:1;                        /*!< bit:     29  Carry condition code flag */
 330:Generated_Source\PSoC6\pdl\cmsis/include/core_cm4.h ****     uint32_t Z:1;                        /*!< bit:     30  Zero condition code flag */
 331:Generated_Source\PSoC6\pdl\cmsis/include/core_cm4.h ****     uint32_t N:1;                        /*!< bit:     31  Negative condition code flag */
 332:Generated_Source\PSoC6\pdl\cmsis/include/core_cm4.h ****   } b;                                   /*!< Structure used for bit  access */
 333:Generated_Source\PSoC6\pdl\cmsis/include/core_cm4.h ****   uint32_t w;                            /*!< Type      used for word access */
 334:Generated_Source\PSoC6\pdl\cmsis/include/core_cm4.h **** } xPSR_Type;
 335:Generated_Source\PSoC6\pdl\cmsis/include/core_cm4.h **** 
 336:Generated_Source\PSoC6\pdl\cmsis/include/core_cm4.h **** /* xPSR Register Definitions */
 337:Generated_Source\PSoC6\pdl\cmsis/include/core_cm4.h **** #define xPSR_N_Pos                         31U                                            /*!< xPSR
 338:Generated_Source\PSoC6\pdl\cmsis/include/core_cm4.h **** #define xPSR_N_Msk                         (1UL << xPSR_N_Pos)                            /*!< xPSR
 339:Generated_Source\PSoC6\pdl\cmsis/include/core_cm4.h **** 
 340:Generated_Source\PSoC6\pdl\cmsis/include/core_cm4.h **** #define xPSR_Z_Pos                         30U                                            /*!< xPSR
 341:Generated_Source\PSoC6\pdl\cmsis/include/core_cm4.h **** #define xPSR_Z_Msk                         (1UL << xPSR_Z_Pos)                            /*!< xPSR
 342:Generated_Source\PSoC6\pdl\cmsis/include/core_cm4.h **** 
 343:Generated_Source\PSoC6\pdl\cmsis/include/core_cm4.h **** #define xPSR_C_Pos                         29U                                            /*!< xPSR
 344:Generated_Source\PSoC6\pdl\cmsis/include/core_cm4.h **** #define xPSR_C_Msk                         (1UL << xPSR_C_Pos)                            /*!< xPSR
ARM GAS  C:\Users\maxwe\AppData\Local\Temp\cchGHDkA.s 			page 51


 345:Generated_Source\PSoC6\pdl\cmsis/include/core_cm4.h **** 
 346:Generated_Source\PSoC6\pdl\cmsis/include/core_cm4.h **** #define xPSR_V_Pos                         28U                                            /*!< xPSR
 347:Generated_Source\PSoC6\pdl\cmsis/include/core_cm4.h **** #define xPSR_V_Msk                         (1UL << xPSR_V_Pos)                            /*!< xPSR
 348:Generated_Source\PSoC6\pdl\cmsis/include/core_cm4.h **** 
 349:Generated_Source\PSoC6\pdl\cmsis/include/core_cm4.h **** #define xPSR_Q_Pos                         27U                                            /*!< xPSR
 350:Generated_Source\PSoC6\pdl\cmsis/include/core_cm4.h **** #define xPSR_Q_Msk                         (1UL << xPSR_Q_Pos)                            /*!< xPSR
 351:Generated_Source\PSoC6\pdl\cmsis/include/core_cm4.h **** 
 352:Generated_Source\PSoC6\pdl\cmsis/include/core_cm4.h **** #define xPSR_ICI_IT_2_Pos                  25U                                            /*!< xPSR
 353:Generated_Source\PSoC6\pdl\cmsis/include/core_cm4.h **** #define xPSR_ICI_IT_2_Msk                  (3UL << xPSR_ICI_IT_2_Pos)                     /*!< xPSR
 354:Generated_Source\PSoC6\pdl\cmsis/include/core_cm4.h **** 
 355:Generated_Source\PSoC6\pdl\cmsis/include/core_cm4.h **** #define xPSR_T_Pos                         24U                                            /*!< xPSR
 356:Generated_Source\PSoC6\pdl\cmsis/include/core_cm4.h **** #define xPSR_T_Msk                         (1UL << xPSR_T_Pos)                            /*!< xPSR
 357:Generated_Source\PSoC6\pdl\cmsis/include/core_cm4.h **** 
 358:Generated_Source\PSoC6\pdl\cmsis/include/core_cm4.h **** #define xPSR_GE_Pos                        16U                                            /*!< xPSR
 359:Generated_Source\PSoC6\pdl\cmsis/include/core_cm4.h **** #define xPSR_GE_Msk                        (0xFUL << xPSR_GE_Pos)                         /*!< xPSR
 360:Generated_Source\PSoC6\pdl\cmsis/include/core_cm4.h **** 
 361:Generated_Source\PSoC6\pdl\cmsis/include/core_cm4.h **** #define xPSR_ICI_IT_1_Pos                  10U                                            /*!< xPSR
 362:Generated_Source\PSoC6\pdl\cmsis/include/core_cm4.h **** #define xPSR_ICI_IT_1_Msk                  (0x3FUL << xPSR_ICI_IT_1_Pos)                  /*!< xPSR
 363:Generated_Source\PSoC6\pdl\cmsis/include/core_cm4.h **** 
 364:Generated_Source\PSoC6\pdl\cmsis/include/core_cm4.h **** #define xPSR_ISR_Pos                        0U                                            /*!< xPSR
 365:Generated_Source\PSoC6\pdl\cmsis/include/core_cm4.h **** #define xPSR_ISR_Msk                       (0x1FFUL /*<< xPSR_ISR_Pos*/)                  /*!< xPSR
 366:Generated_Source\PSoC6\pdl\cmsis/include/core_cm4.h **** 
 367:Generated_Source\PSoC6\pdl\cmsis/include/core_cm4.h **** 
 368:Generated_Source\PSoC6\pdl\cmsis/include/core_cm4.h **** /**
 369:Generated_Source\PSoC6\pdl\cmsis/include/core_cm4.h ****   \brief  Union type to access the Control Registers (CONTROL).
 370:Generated_Source\PSoC6\pdl\cmsis/include/core_cm4.h ****  */
 371:Generated_Source\PSoC6\pdl\cmsis/include/core_cm4.h **** typedef union
 372:Generated_Source\PSoC6\pdl\cmsis/include/core_cm4.h **** {
 373:Generated_Source\PSoC6\pdl\cmsis/include/core_cm4.h ****   struct
 374:Generated_Source\PSoC6\pdl\cmsis/include/core_cm4.h ****   {
 375:Generated_Source\PSoC6\pdl\cmsis/include/core_cm4.h ****     uint32_t nPRIV:1;                    /*!< bit:      0  Execution privilege in Thread mode */
 376:Generated_Source\PSoC6\pdl\cmsis/include/core_cm4.h ****     uint32_t SPSEL:1;                    /*!< bit:      1  Stack to be used */
 377:Generated_Source\PSoC6\pdl\cmsis/include/core_cm4.h ****     uint32_t FPCA:1;                     /*!< bit:      2  FP extension active flag */
 378:Generated_Source\PSoC6\pdl\cmsis/include/core_cm4.h ****     uint32_t _reserved0:29;              /*!< bit:  3..31  Reserved */
 379:Generated_Source\PSoC6\pdl\cmsis/include/core_cm4.h ****   } b;                                   /*!< Structure used for bit  access */
 380:Generated_Source\PSoC6\pdl\cmsis/include/core_cm4.h ****   uint32_t w;                            /*!< Type      used for word access */
 381:Generated_Source\PSoC6\pdl\cmsis/include/core_cm4.h **** } CONTROL_Type;
 382:Generated_Source\PSoC6\pdl\cmsis/include/core_cm4.h **** 
 383:Generated_Source\PSoC6\pdl\cmsis/include/core_cm4.h **** /* CONTROL Register Definitions */
 384:Generated_Source\PSoC6\pdl\cmsis/include/core_cm4.h **** #define CONTROL_FPCA_Pos                    2U                                            /*!< CONT
 385:Generated_Source\PSoC6\pdl\cmsis/include/core_cm4.h **** #define CONTROL_FPCA_Msk                   (1UL << CONTROL_FPCA_Pos)                      /*!< CONT
 386:Generated_Source\PSoC6\pdl\cmsis/include/core_cm4.h **** 
 387:Generated_Source\PSoC6\pdl\cmsis/include/core_cm4.h **** #define CONTROL_SPSEL_Pos                   1U                                            /*!< CONT
 388:Generated_Source\PSoC6\pdl\cmsis/include/core_cm4.h **** #define CONTROL_SPSEL_Msk                  (1UL << CONTROL_SPSEL_Pos)                     /*!< CONT
 389:Generated_Source\PSoC6\pdl\cmsis/include/core_cm4.h **** 
 390:Generated_Source\PSoC6\pdl\cmsis/include/core_cm4.h **** #define CONTROL_nPRIV_Pos                   0U                                            /*!< CONT
 391:Generated_Source\PSoC6\pdl\cmsis/include/core_cm4.h **** #define CONTROL_nPRIV_Msk                  (1UL /*<< CONTROL_nPRIV_Pos*/)                 /*!< CONT
 392:Generated_Source\PSoC6\pdl\cmsis/include/core_cm4.h **** 
 393:Generated_Source\PSoC6\pdl\cmsis/include/core_cm4.h **** /*@} end of group CMSIS_CORE */
 394:Generated_Source\PSoC6\pdl\cmsis/include/core_cm4.h **** 
 395:Generated_Source\PSoC6\pdl\cmsis/include/core_cm4.h **** 
 396:Generated_Source\PSoC6\pdl\cmsis/include/core_cm4.h **** /**
 397:Generated_Source\PSoC6\pdl\cmsis/include/core_cm4.h ****   \ingroup    CMSIS_core_register
 398:Generated_Source\PSoC6\pdl\cmsis/include/core_cm4.h ****   \defgroup   CMSIS_NVIC  Nested Vectored Interrupt Controller (NVIC)
 399:Generated_Source\PSoC6\pdl\cmsis/include/core_cm4.h ****   \brief      Type definitions for the NVIC Registers
 400:Generated_Source\PSoC6\pdl\cmsis/include/core_cm4.h ****   @{
 401:Generated_Source\PSoC6\pdl\cmsis/include/core_cm4.h ****  */
ARM GAS  C:\Users\maxwe\AppData\Local\Temp\cchGHDkA.s 			page 52


 402:Generated_Source\PSoC6\pdl\cmsis/include/core_cm4.h **** 
 403:Generated_Source\PSoC6\pdl\cmsis/include/core_cm4.h **** /**
 404:Generated_Source\PSoC6\pdl\cmsis/include/core_cm4.h ****   \brief  Structure type to access the Nested Vectored Interrupt Controller (NVIC).
 405:Generated_Source\PSoC6\pdl\cmsis/include/core_cm4.h ****  */
 406:Generated_Source\PSoC6\pdl\cmsis/include/core_cm4.h **** typedef struct
 407:Generated_Source\PSoC6\pdl\cmsis/include/core_cm4.h **** {
 408:Generated_Source\PSoC6\pdl\cmsis/include/core_cm4.h ****   __IOM uint32_t ISER[8U];               /*!< Offset: 0x000 (R/W)  Interrupt Set Enable Register */
 409:Generated_Source\PSoC6\pdl\cmsis/include/core_cm4.h ****         uint32_t RESERVED0[24U];
 410:Generated_Source\PSoC6\pdl\cmsis/include/core_cm4.h ****   __IOM uint32_t ICER[8U];               /*!< Offset: 0x080 (R/W)  Interrupt Clear Enable Register 
 411:Generated_Source\PSoC6\pdl\cmsis/include/core_cm4.h ****         uint32_t RSERVED1[24U];
 412:Generated_Source\PSoC6\pdl\cmsis/include/core_cm4.h ****   __IOM uint32_t ISPR[8U];               /*!< Offset: 0x100 (R/W)  Interrupt Set Pending Register *
 413:Generated_Source\PSoC6\pdl\cmsis/include/core_cm4.h ****         uint32_t RESERVED2[24U];
 414:Generated_Source\PSoC6\pdl\cmsis/include/core_cm4.h ****   __IOM uint32_t ICPR[8U];               /*!< Offset: 0x180 (R/W)  Interrupt Clear Pending Register
 415:Generated_Source\PSoC6\pdl\cmsis/include/core_cm4.h ****         uint32_t RESERVED3[24U];
 416:Generated_Source\PSoC6\pdl\cmsis/include/core_cm4.h ****   __IOM uint32_t IABR[8U];               /*!< Offset: 0x200 (R/W)  Interrupt Active bit Register */
 417:Generated_Source\PSoC6\pdl\cmsis/include/core_cm4.h ****         uint32_t RESERVED4[56U];
 418:Generated_Source\PSoC6\pdl\cmsis/include/core_cm4.h ****   __IOM uint8_t  IP[240U];               /*!< Offset: 0x300 (R/W)  Interrupt Priority Register (8Bi
 419:Generated_Source\PSoC6\pdl\cmsis/include/core_cm4.h ****         uint32_t RESERVED5[644U];
 420:Generated_Source\PSoC6\pdl\cmsis/include/core_cm4.h ****   __OM  uint32_t STIR;                   /*!< Offset: 0xE00 ( /W)  Software Trigger Interrupt Regis
 421:Generated_Source\PSoC6\pdl\cmsis/include/core_cm4.h **** }  NVIC_Type;
 422:Generated_Source\PSoC6\pdl\cmsis/include/core_cm4.h **** 
 423:Generated_Source\PSoC6\pdl\cmsis/include/core_cm4.h **** /* Software Triggered Interrupt Register Definitions */
 424:Generated_Source\PSoC6\pdl\cmsis/include/core_cm4.h **** #define NVIC_STIR_INTID_Pos                 0U                                         /*!< STIR: I
 425:Generated_Source\PSoC6\pdl\cmsis/include/core_cm4.h **** #define NVIC_STIR_INTID_Msk                (0x1FFUL /*<< NVIC_STIR_INTID_Pos*/)        /*!< STIR: I
 426:Generated_Source\PSoC6\pdl\cmsis/include/core_cm4.h **** 
 427:Generated_Source\PSoC6\pdl\cmsis/include/core_cm4.h **** /*@} end of group CMSIS_NVIC */
 428:Generated_Source\PSoC6\pdl\cmsis/include/core_cm4.h **** 
 429:Generated_Source\PSoC6\pdl\cmsis/include/core_cm4.h **** 
 430:Generated_Source\PSoC6\pdl\cmsis/include/core_cm4.h **** /**
 431:Generated_Source\PSoC6\pdl\cmsis/include/core_cm4.h ****   \ingroup  CMSIS_core_register
 432:Generated_Source\PSoC6\pdl\cmsis/include/core_cm4.h ****   \defgroup CMSIS_SCB     System Control Block (SCB)
 433:Generated_Source\PSoC6\pdl\cmsis/include/core_cm4.h ****   \brief    Type definitions for the System Control Block Registers
 434:Generated_Source\PSoC6\pdl\cmsis/include/core_cm4.h ****   @{
 435:Generated_Source\PSoC6\pdl\cmsis/include/core_cm4.h ****  */
 436:Generated_Source\PSoC6\pdl\cmsis/include/core_cm4.h **** 
 437:Generated_Source\PSoC6\pdl\cmsis/include/core_cm4.h **** /**
 438:Generated_Source\PSoC6\pdl\cmsis/include/core_cm4.h ****   \brief  Structure type to access the System Control Block (SCB).
 439:Generated_Source\PSoC6\pdl\cmsis/include/core_cm4.h ****  */
 440:Generated_Source\PSoC6\pdl\cmsis/include/core_cm4.h **** typedef struct
 441:Generated_Source\PSoC6\pdl\cmsis/include/core_cm4.h **** {
 442:Generated_Source\PSoC6\pdl\cmsis/include/core_cm4.h ****   __IM  uint32_t CPUID;                  /*!< Offset: 0x000 (R/ )  CPUID Base Register */
 443:Generated_Source\PSoC6\pdl\cmsis/include/core_cm4.h ****   __IOM uint32_t ICSR;                   /*!< Offset: 0x004 (R/W)  Interrupt Control and State Regi
 444:Generated_Source\PSoC6\pdl\cmsis/include/core_cm4.h ****   __IOM uint32_t VTOR;                   /*!< Offset: 0x008 (R/W)  Vector Table Offset Register */
 445:Generated_Source\PSoC6\pdl\cmsis/include/core_cm4.h ****   __IOM uint32_t AIRCR;                  /*!< Offset: 0x00C (R/W)  Application Interrupt and Reset 
 446:Generated_Source\PSoC6\pdl\cmsis/include/core_cm4.h ****   __IOM uint32_t SCR;                    /*!< Offset: 0x010 (R/W)  System Control Register */
 447:Generated_Source\PSoC6\pdl\cmsis/include/core_cm4.h ****   __IOM uint32_t CCR;                    /*!< Offset: 0x014 (R/W)  Configuration Control Register *
 448:Generated_Source\PSoC6\pdl\cmsis/include/core_cm4.h ****   __IOM uint8_t  SHP[12U];               /*!< Offset: 0x018 (R/W)  System Handlers Priority Registe
 449:Generated_Source\PSoC6\pdl\cmsis/include/core_cm4.h ****   __IOM uint32_t SHCSR;                  /*!< Offset: 0x024 (R/W)  System Handler Control and State
 450:Generated_Source\PSoC6\pdl\cmsis/include/core_cm4.h ****   __IOM uint32_t CFSR;                   /*!< Offset: 0x028 (R/W)  Configurable Fault Status Regist
 451:Generated_Source\PSoC6\pdl\cmsis/include/core_cm4.h ****   __IOM uint32_t HFSR;                   /*!< Offset: 0x02C (R/W)  HardFault Status Register */
 452:Generated_Source\PSoC6\pdl\cmsis/include/core_cm4.h ****   __IOM uint32_t DFSR;                   /*!< Offset: 0x030 (R/W)  Debug Fault Status Register */
 453:Generated_Source\PSoC6\pdl\cmsis/include/core_cm4.h ****   __IOM uint32_t MMFAR;                  /*!< Offset: 0x034 (R/W)  MemManage Fault Address Register
 454:Generated_Source\PSoC6\pdl\cmsis/include/core_cm4.h ****   __IOM uint32_t BFAR;                   /*!< Offset: 0x038 (R/W)  BusFault Address Register */
 455:Generated_Source\PSoC6\pdl\cmsis/include/core_cm4.h ****   __IOM uint32_t AFSR;                   /*!< Offset: 0x03C (R/W)  Auxiliary Fault Status Register 
 456:Generated_Source\PSoC6\pdl\cmsis/include/core_cm4.h ****   __IM  uint32_t PFR[2U];                /*!< Offset: 0x040 (R/ )  Processor Feature Register */
 457:Generated_Source\PSoC6\pdl\cmsis/include/core_cm4.h ****   __IM  uint32_t DFR;                    /*!< Offset: 0x048 (R/ )  Debug Feature Register */
 458:Generated_Source\PSoC6\pdl\cmsis/include/core_cm4.h ****   __IM  uint32_t ADR;                    /*!< Offset: 0x04C (R/ )  Auxiliary Feature Register */
ARM GAS  C:\Users\maxwe\AppData\Local\Temp\cchGHDkA.s 			page 53


 459:Generated_Source\PSoC6\pdl\cmsis/include/core_cm4.h ****   __IM  uint32_t MMFR[4U];               /*!< Offset: 0x050 (R/ )  Memory Model Feature Register */
 460:Generated_Source\PSoC6\pdl\cmsis/include/core_cm4.h ****   __IM  uint32_t ISAR[5U];               /*!< Offset: 0x060 (R/ )  Instruction Set Attributes Regis
 461:Generated_Source\PSoC6\pdl\cmsis/include/core_cm4.h ****         uint32_t RESERVED0[5U];
 462:Generated_Source\PSoC6\pdl\cmsis/include/core_cm4.h ****   __IOM uint32_t CPACR;                  /*!< Offset: 0x088 (R/W)  Coprocessor Access Control Regis
 463:Generated_Source\PSoC6\pdl\cmsis/include/core_cm4.h **** } SCB_Type;
 464:Generated_Source\PSoC6\pdl\cmsis/include/core_cm4.h **** 
 465:Generated_Source\PSoC6\pdl\cmsis/include/core_cm4.h **** /* SCB CPUID Register Definitions */
 466:Generated_Source\PSoC6\pdl\cmsis/include/core_cm4.h **** #define SCB_CPUID_IMPLEMENTER_Pos          24U                                            /*!< SCB 
 467:Generated_Source\PSoC6\pdl\cmsis/include/core_cm4.h **** #define SCB_CPUID_IMPLEMENTER_Msk          (0xFFUL << SCB_CPUID_IMPLEMENTER_Pos)          /*!< SCB 
 468:Generated_Source\PSoC6\pdl\cmsis/include/core_cm4.h **** 
 469:Generated_Source\PSoC6\pdl\cmsis/include/core_cm4.h **** #define SCB_CPUID_VARIANT_Pos              20U                                            /*!< SCB 
 470:Generated_Source\PSoC6\pdl\cmsis/include/core_cm4.h **** #define SCB_CPUID_VARIANT_Msk              (0xFUL << SCB_CPUID_VARIANT_Pos)               /*!< SCB 
 471:Generated_Source\PSoC6\pdl\cmsis/include/core_cm4.h **** 
 472:Generated_Source\PSoC6\pdl\cmsis/include/core_cm4.h **** #define SCB_CPUID_ARCHITECTURE_Pos         16U                                            /*!< SCB 
 473:Generated_Source\PSoC6\pdl\cmsis/include/core_cm4.h **** #define SCB_CPUID_ARCHITECTURE_Msk         (0xFUL << SCB_CPUID_ARCHITECTURE_Pos)          /*!< SCB 
 474:Generated_Source\PSoC6\pdl\cmsis/include/core_cm4.h **** 
 475:Generated_Source\PSoC6\pdl\cmsis/include/core_cm4.h **** #define SCB_CPUID_PARTNO_Pos                4U                                            /*!< SCB 
 476:Generated_Source\PSoC6\pdl\cmsis/include/core_cm4.h **** #define SCB_CPUID_PARTNO_Msk               (0xFFFUL << SCB_CPUID_PARTNO_Pos)              /*!< SCB 
 477:Generated_Source\PSoC6\pdl\cmsis/include/core_cm4.h **** 
 478:Generated_Source\PSoC6\pdl\cmsis/include/core_cm4.h **** #define SCB_CPUID_REVISION_Pos              0U                                            /*!< SCB 
 479:Generated_Source\PSoC6\pdl\cmsis/include/core_cm4.h **** #define SCB_CPUID_REVISION_Msk             (0xFUL /*<< SCB_CPUID_REVISION_Pos*/)          /*!< SCB 
 480:Generated_Source\PSoC6\pdl\cmsis/include/core_cm4.h **** 
 481:Generated_Source\PSoC6\pdl\cmsis/include/core_cm4.h **** /* SCB Interrupt Control State Register Definitions */
 482:Generated_Source\PSoC6\pdl\cmsis/include/core_cm4.h **** #define SCB_ICSR_NMIPENDSET_Pos            31U                                            /*!< SCB 
